Certificate:
    Data:
        Version: 3 (0x2)
        Serial Number: 8 (0x8)
    Signature Algorithm: sha512WithRSAEncryption
        Issuer: C=CA, ST=Ontario, L=Russell, O=MilleGrilles, OU=Signature, CN=millegrilles.com
        Validity
            Not Before: Jan  5 16:47:43 2019 GMT
            Not After : Jan  6 16:47:43 2020 GMT
        Subject: C=CA, ST=Ontario, L=Russell, O=Millegrilles, CN=ns1.pivoine.mdugre.info
        Subject Public Key Info:
            Public Key Algorithm: rsaEncryption
                Public-Key: (4096 bit)
                Modulus:
                    00:c3:74:66:b4:18:5e:55:94:3d:10:e7:2c:3a:3c:
                    4d:ac:a5:91:98:a0:89:2b:05:1b:91:07:83:44:29:
                    53:2b:c9:eb:89:b8:5c:d3:01:f1:2c:ce:dc:e2:32:
                    4d:dc:da:d2:c1:b9:15:21:95:c8:e3:f8:2c:79:22:
                    98:0a:f0:4b:b3:67:27:3f:04:a0:a0:02:5d:0d:be:
                    da:03:1c:d4:0b:7f:27:30:87:8f:82:57:48:28:21:
                    43:bf:d4:3c:9e:ea:30:d5:b3:bd:25:f2:ea:fb:de:
                    17:93:d6:84:e2:59:d1:2c:98:b7:99:53:c9:25:33:
                    5a:df:76:7f:17:d7:62:75:52:49:e7:16:e9:d9:d9:
                    79:56:f5:7c:88:d5:d0:5b:e8:4e:62:8e:fa:a3:0a:
                    55:75:90:33:ea:09:36:09:f6:d0:6e:5e:92:57:cc:
                    6f:00:89:3f:b3:d0:9e:86:46:c2:55:06:6c:2a:17:
                    42:58:41:fc:cb:bd:1c:7e:5d:c7:c4:08:5e:44:11:
                    e5:40:e1:54:51:cf:b6:9e:24:c8:25:98:87:bd:00:
                    ca:57:b9:ef:62:76:bf:33:2b:72:02:21:8d:39:1b:
                    75:c8:fe:11:34:a2:d5:ed:ba:c9:ba:ef:fb:8b:45:
                    2b:a9:8f:e7:c5:86:26:8b:9a:5f:95:74:5d:fc:16:
                    0c:e4:6c:6c:7b:e2:cb:4d:f0:9f:f6:49:0c:1a:4a:
                    2c:98:59:1b:d3:1a:14:b2:fe:2d:11:76:12:58:94:
                    0e:c2:59:ec:17:1c:42:07:5b:ed:a1:23:51:88:9b:
                    c6:06:5d:61:d0:4b:e3:47:45:b0:b6:ad:2d:e8:31:
                    46:1d:dd:88:2d:53:78:80:68:ca:6e:0d:62:b6:30:
                    95:b7:ab:cf:01:ba:f4:c2:0d:96:f4:33:47:41:0d:
                    5f:8f:38:5b:d7:b7:e3:66:7a:63:e6:10:f8:13:c1:
                    8e:ac:45:a1:1d:0c:24:a0:5a:80:b2:66:7f:8b:27:
                    b9:f8:b9:2e:df:93:6e:a9:e6:8b:3c:89:7c:d8:a9:
                    be:c9:3e:70:f4:2e:c5:12:57:1b:af:1b:44:fc:d4:
                    57:e5:ee:db:29:40:bf:0f:eb:4b:a6:2f:04:94:8b:
                    ab:7e:a6:8a:9e:8c:d3:c3:88:0c:0a:3a:bf:f7:ca:
                    65:32:57:dc:f4:28:43:68:b3:8c:74:3f:88:ee:89:
                    a3:57:96:93:da:5a:06:8c:35:f8:d9:89:58:23:a2:
                    c6:df:24:9d:4f:2b:47:fc:2b:4a:34:e7:05:87:07:
                    c3:33:25:6b:cf:df:cc:5e:22:1e:1f:13:bf:2e:ae:
                    7a:e4:fb:85:63:90:99:c2:f1:33:c4:e1:fc:9a:5e:
                    ab:dc:9f
                Exponent: 65537 (0x10001)
        X509v3 extensions:
            X509v3 Subject Key Identifier: 
                26:4A:3E:BB:19:31:72:74:51:01:F7:2A:26:0A:87:FD:10:BD:3E:4B
            X509v3 Authority Key Identifier: 
                keyid:97:AE:90:74:57:C2:5A:59:9B:52:E8:36:CD:9C:45:EC:C8:A2:1A:7C

            X509v3 Basic Constraints: 
                CA:FALSE
            X509v3 Key Usage: 
                Digital Signature, Key Encipherment
            X509v3 Subject Alternative Name: 
                DNS:ns1.pivoine.mdugre.info
            Netscape Comment: 
                OpenSSL Generated Certificate
    Signature Algorithm: sha512WithRSAEncryption
         04:22:0f:3d:f4:2f:4a:be:eb:aa:87:7f:17:45:05:fd:a1:a4:
         18:14:ed:0b:23:75:ef:2f:2d:ae:ae:00:9c:9d:ee:5e:4b:7e:
         8b:a5:7a:95:7c:cd:83:27:63:fe:b8:d9:af:8a:54:52:c6:ca:
         a2:30:fb:9a:0e:42:b1:ce:6d:e1:9f:68:b0:48:22:d9:1d:d5:
         ec:50:4f:50:68:f3:79:84:ee:f0:3d:02:8d:f5:15:75:f0:8e:
         1f:ce:8e:a4:b7:fb:8b:6e:fe:38:f6:c3:dc:bf:00:fb:21:01:
         2b:4b:bf:5c:b3:c5:7a:fd:2d:73:fd:68:0d:bf:94:02:a9:88:
         96:52:6d:83:0b:5c:3f:8c:81:e5:32:67:95:57:6a:16:93:43:
         de:6c:ed:ee:f1:cf:32:ff:a9:6b:20:46:05:4f:87:ca:7e:99:
         bc:d1:fe:ae:95:55:f8:22:8c:7b:39:02:a6:70:a4:47:73:8f:
         93:1e:4f:32:77:6f:27:56:f1:b4:6b:fb:a8:34:3c:98:1f:ec:
         36:20:0e:76:6e:39:4c:26:0e:4e:76:2b:31:3a:02:08:17:f9:
         af:6f:0a:dd:42:5a:9c:b4:e9:e4:a4:ae:16:3e:cc:d4:5d:b0:
         e4:8d:5e:cd:de:22:c7:52:f0:60:b9:cd:8e:03:86:90:b9:70:
         2b:20:a3:8c:4f:b9:a1:b6:9f:63:ce:22:37:fb:1d:57:5f:e2:
         2f:8a:47:56:13:1b:6e:a6:4a:ff:78:34:63:7f:46:b4:57:ae:
         d1:f2:fa:fc:bf:2c:39:55:18:63:f7:05:32:3c:81:c3:3f:76:
         78:57:28:1d:68:a5:16:a2:0b:b8:30:87:2c:a3:45:36:2f:0a:
         68:c5:1e:27:60:61:5d:fb:94:e8:aa:49:32:af:a0:ae:63:a3:
         7f:c8:fb:2c:35:cf:d4:2f:a9:e2:72:e8:2d:d3:f4:e4:bb:e0:
         b1:07:a5:a2:f4:7e:9d:f0:00:71:c0:04:2e:1b:e5:05:0c:c4:
         16:83:c9:28:ee:b3:76:fa:fe:7b:e2:7f:40:1a:56:27:e8:27:
         9e:5f:e3:1d:d8:19:92:c5:6d:64:71:7d:c9:2f:5c:57:db:0b:
         93:85:e0:6f:5d:6d:e1:87:33:5e:81:cc:32:ff:25:d5:88:83:
         80:ed:79:1f:4d:69:7c:39:80:2a:d3:96:0d:c7:52:97:a7:1e:
         45:d1:c7:ab:2f:25:e1:d7:ab:10:fb:25:ad:8a:83:17:d4:b0:
         fd:1d:ae:53:8f:aa:af:b4:04:ed:ed:3b:e8:e6:b0:c7:d1:82:
         84:63:5b:69:3a:55:e6:db:06:42:4d:35:7c:12:c7:da:72:4b:
         b2:e8:ba:0c:4d:4a:63:b1:6d:70:f3:a1:ce:9c:47:6b:44:22:
         0c:da:8b:7a:98:5c:8f:b6:00:87:99:9e:92:73:1f:0e:0c:0c:
         27:cb:c6:8e:93:58:27:ee:c7:cf:87:c2:95:32:fd:69:27:d4:
         e5:52:ab:00:8d:dc:1b:9a:b6:a2:74:b7:e0:09:0d:c5:30:11:
         92:51:a7:7e:93:9c:dc:85:c1:74:d9:89:df:1b:35:c8:81:72:
         33:92:0c:5e:72:65:14:1e:8a:35:de:af:9a:ff:6d:ec:91:eb:
         92:ec:82:91:f1:93:f7:32:c9:e0:0b:cf:b1:c0:82:09:2d:02:
         cf:ee:a6:74:37:ec:80:41:6e:aa:5f:62:cf:f4:2d:41:5d:96:
         1e:2b:e3:26:3c:ce:f6:88:01:9d:99:95:81:08:19:5b:55:6e:
         61:5c:57:df:ab:b0:28:0a:1c:cd:69:13:b4:b7:c9:cd:6a:4e:
         98:c4:02:e9:e4:02:20:f7:36:4b:75:43:15:a8:0e:d9:32:fb:
         54:6e:3f:f9:ad:b9:33:7d:2f:9d:f8:39:a0:f2:f1:7d:27:9e:
         72:8e:da:28:6a:3d:de:62:7c:df:91:c0:b7:40:b2:08:aa:0f:
         e9:81:df:02:08:60:d1:60:6b:67:a6:20:27:d6:93:96:11:e8:
         98:b4:66:08:27:42:47:27:fe:a7:94:70:ee:f5:b5:97:82:a9:
         e6:e4:49:17:20:6c:53:87:7f:f7:cc:42:1d:64:08:4a:8e:87:
         57:27:08:be:36:80:60:c1:08:9b:ba:d5:a8:f7:cb:35:9e:7d:
         1b:13:06:5a:77:15:1e:09:15:dc:cb:b4:0d:f8:3a:04:39:f7:
         a0:3b:b7:2e:79:57:c8:5c:76:e5:8a:3a:11:75:c5:8b:38:0f:
         0e:79:64:84:0c:bd:6f:f0:ef:54:36:9a:18:a2:80:5e:8c:93:
         58:a4:5f:e3:d2:6d:73:62:2e:3f:bb:92:d1:81:da:58:71:f9:
         b5:67:72:36:89:17:bd:62:97:d1:99:f3:c0:f2:b3:d3:bd:cc:
         86:23:1d:04:81:c8:e9:48:7b:ea:0e:15:79:11:a3:83:7b:c6:
         ef:79:f1:45:45:f2:fe:10:71:c4:7e:86:3d:1a:69:2a:e4:f8:
         f6:31:ce:e8:ff:fa:74:c1:3b:50:2f:30:0d:0b:5d:5a:ea:ce:
         23:b4:34:7c:8b:8f:0b:c2:90:d8:8e:60:77:45:01:cb:eb:03:
         cb:84:16:24:3c:d4:8e:b2:0e:c8:de:5d:9e:48:dc:46:ee:d6:
         ab:c5:7f:b4:fd:fc:1f:3e:33:3a:e3:bb:49:82:2d:81:d3:57:
         52:74:56:9c:c5:d8:2a:3a:83:46:1d:30:6b:a6:ef:70
-----BEGIN CERTIFICATE-----
MIIICjCCA/KgAwIBAgIBCDANBgkqhkiG9w0BAQ0FADB3MQswCQYDVQQGEwJDQTEQ
MA4GA1UECAwHT250YXJpbzEQMA4GA1UEBwwHUnVzc2VsbDEVMBMGA1UECgwMTWls
bGVHcmlsbGVzMRIwEAYDVQQLDAlTaWduYXR1cmUxGTAXBgNVBAMMEG1pbGxlZ3Jp
bGxlcy5jb20wHhcNMTkwMTA1MTY0NzQzWhcNMjAwMTA2MTY0NzQzWjBqMQswCQYD
VQQGEwJDQTEQMA4GA1UECAwHT250YXJpbzEQMA4GA1UEBwwHUnVzc2VsbDEVMBMG
A1UECgwMTWlsbGVncmlsbGVzMSAwHgYDVQQDDBduczEucGl2b2luZS5tZHVncmUu
aW5mbzCCAiIwDQYJKoZIhvcNAQEBBQADggIPADCCAgoCggIBAMN0ZrQYXlWUPRDn
LDo8TaylkZigiSsFG5EHg0QpUyvJ64m4XNMB8SzO3OIyTdza0sG5FSGVyOP4LHki
mArwS7NnJz8EoKACXQ2+2gMc1At/JzCHj4JXSCghQ7/UPJ7qMNWzvSXy6vveF5PW
hOJZ0SyYt5lTySUzWt92fxfXYnVSSecW6dnZeVb1fIjV0FvoTmKO+qMKVXWQM+oJ
Ngn20G5eklfMbwCJP7PQnoZGwlUGbCoXQlhB/Mu9HH5dx8QIXkQR5UDhVFHPtp4k
yCWYh70Ayle572J2vzMrcgIhjTkbdcj+ETSi1e26ybrv+4tFK6mP58WGJouaX5V0
XfwWDORsbHviy03wn/ZJDBpKLJhZG9MaFLL+LRF2EliUDsJZ7BccQgdb7aEjUYib
xgZdYdBL40dFsLatLegxRh3diC1TeIBoym4NYrYwlberzwG69MINlvQzR0ENX484
W9e342Z6Y+YQ+BPBjqxFoR0MJKBagLJmf4snufi5Lt+TbqnmizyJfNipvsk+cPQu
xRJXG68bRPzUV+Xu2ylAvw/rS6YvBJSLq36mip6M08OIDAo6v/fKZTJX3PQoQ2iz
jHQ/iO6Jo1eWk9paBow1+NmJWCOixt8knU8rR/wrSjTnBYcHwzMla8/fzF4iHh8T
vy6ueuT7hWOQmcLxM8Th/Jpeq9yfAgMBAAGjga0wgaowHQYDVR0OBBYEFCZKPrsZ
MXJ0UQH3KiYKh/0QvT5LMB8GA1UdIwQYMBaAFJeukHRXwlpZm1LoNs2cRezIohp8
MAkGA1UdEwQCMAAwCwYDVR0PBAQDAgWgMCIGA1UdEQQbMBmCF25zMS5waXZvaW5l
Lm1kdWdyZS5pbmZvMCwGCWCGSAGG+EIBDQQfFh1PcGVuU1NMIEdlbmVyYXRlZCBD
ZXJ0aWZpY2F0ZTANBgkqhkiG9w0BAQ0FAAOCBAEABCIPPfQvSr7rqod/F0UF/aGk
GBTtCyN17y8trq4AnJ3uXkt+i6V6lXzNgydj/rjZr4pUUsbKojD7mg5Csc5t4Z9o
sEgi2R3V7FBPUGjzeYTu8D0CjfUVdfCOH86OpLf7i27+OPbD3L8A+yEBK0u/XLPF
ev0tc/1oDb+UAqmIllJtgwtcP4yB5TJnlVdqFpND3mzt7vHPMv+payBGBU+Hyn6Z
vNH+rpVV+CKMezkCpnCkR3OPkx5PMndvJ1bxtGv7qDQ8mB/sNiAOdm45TCYOTnYr
MToCCBf5r28K3UJanLTp5KSuFj7M1F2w5I1ezd4ix1LwYLnNjgOGkLlwKyCjjE+5
obafY84iN/sdV1/iL4pHVhMbbqZK/3g0Y39GtFeu0fL6/L8sOVUYY/cFMjyBwz92
eFcoHWilFqILuDCHLKNFNi8KaMUeJ2BhXfuU6KpJMq+grmOjf8j7LDXP1C+p4nLo
LdP05LvgsQelovR+nfAAccAELhvlBQzEFoPJKO6zdvr+e+J/QBpWJ+gnnl/jHdgZ
ksVtZHF9yS9cV9sLk4Xgb11t4YczXoHMMv8l1YiDgO15H01pfDmAKtOWDcdSl6ce
RdHHqy8l4derEPslrYqDF9Sw/R2uU4+qr7QE7e076Oawx9GChGNbaTpV5tsGQk01
fBLH2nJLsui6DE1KY7FtcPOhzpxHa0QiDNqLephcj7YAh5meknMfDgwMJ8vGjpNY
J+7Hz4fClTL9aSfU5VKrAI3cG5q2onS34AkNxTARklGnfpOc3IXBdNmJ3xs1yIFy
M5IMXnJlFB6KNd6vmv9t7JHrkuyCkfGT9zLJ4AvPscCCCS0Cz+6mdDfsgEFuql9i
z/QtQV2WHivjJjzO9ogBnZmVgQgZW1VuYVxX36uwKAoczWkTtLfJzWpOmMQC6eQC
IPc2S3VDFagO2TL7VG4/+a25M30vnfg5oPLxfSeeco7aKGo93mJ835HAt0CyCKoP
6YHfAghg0WBrZ6YgJ9aTlhHomLRmCCdCRyf+p5Rw7vW1l4Kp5uRJFyBsU4d/98xC
HWQISo6HVycIvjaAYMEIm7rVqPfLNZ59GxMGWncVHgkV3Mu0Dfg6BDn3oDu3LnlX
yFx25Yo6EXXFizgPDnlkhAy9b/DvVDaaGKKAXoyTWKRf49Jtc2IuP7uS0YHaWHH5
tWdyNokXvWKX0ZnzwPKz073MhiMdBIHI6Uh76g4VeRGjg3vG73nxRUXy/hBxxH6G
PRppKuT49jHO6P/6dME7UC8wDQtdWurOI7Q0fIuPC8KQ2I5gd0UBy+sDy4QWJDzU
jrIOyN5dnkjcRu7Wq8V/tP38Hz4zOuO7SYItgdNXUnRWnMXYKjqDRh0wa6bvcA==
-----END CERTIFICATE-----
