Certificate:
    Data:
        Version: 3 (0x2)
        Serial Number: 2 (0x2)
    Signature Algorithm: sha512WithRSAEncryption
        Issuer: C=CA, ST=Ontario, L=Russell, O=dev2, OU=Signature, CN=dev2.maple.mdugre.info
        Validity
            Not Before: Jan 13 14:44:16 2019 GMT
            Not After : Jan  4 14:44:16 2021 GMT
        Subject: C=CA, ST=Ontario, L=Russell, O=dev2_noeud, OU=Noeud, CN=noeud_dev2.maple.mdugre.info
        Subject Public Key Info:
            Public Key Algorithm: rsaEncryption
                Public-Key: (4096 bit)
                Modulus:
                    00:bd:6e:e0:17:74:78:47:2a:15:db:27:c7:98:2a:
                    a3:c4:13:eb:ce:fe:3b:ce:6d:d7:59:71:c7:95:ac:
                    41:7f:f3:02:b2:f9:8c:7e:53:2c:2d:bc:46:c1:56:
                    d5:ae:72:0c:5f:22:95:89:c9:82:06:9c:a3:4c:6d:
                    ff:60:d6:c0:f8:41:39:bd:1d:5a:d1:a3:d2:b1:0f:
                    b5:1e:34:34:2f:ae:55:cf:d3:ac:e5:83:30:af:5c:
                    86:fb:d9:3b:a7:6c:f7:c4:c8:02:c3:5b:09:fd:f2:
                    0f:d4:5f:4b:e0:90:05:1b:a3:de:0c:2a:de:8a:7b:
                    11:d4:ff:e6:58:5b:45:76:5e:fd:b8:22:2a:2c:14:
                    d2:4c:f9:f5:ec:a0:a2:a9:54:e5:8f:22:f5:c6:ce:
                    39:e8:38:53:28:bd:fd:4f:49:2b:18:95:ab:69:d9:
                    2c:bf:1e:0f:d6:fa:83:83:83:31:65:5d:91:e1:87:
                    91:a4:b2:94:38:74:48:2b:19:56:1b:0d:96:be:87:
                    21:22:7b:6a:c4:ae:38:cb:4d:a5:28:68:5b:da:4b:
                    04:5b:a8:78:96:37:bd:24:33:32:0e:71:dc:a3:91:
                    76:b8:99:6b:47:3f:ad:25:c7:e2:a2:6a:dc:82:37:
                    15:a2:8e:ca:a2:97:05:3b:0f:a0:4d:ea:e0:c9:41:
                    28:b2:66:01:d5:c5:f2:86:17:19:da:78:e5:af:50:
                    bf:7d:32:1c:7f:df:2e:68:2b:af:39:87:6b:1f:a2:
                    b8:0a:18:cc:8e:b5:ed:cf:5c:a9:4c:98:45:d1:a7:
                    65:55:14:c7:83:58:13:86:ac:a8:89:70:9d:7d:56:
                    fd:08:8e:ca:0e:6e:99:18:42:b7:02:20:73:8c:e4:
                    3f:a1:56:c8:0b:6b:e6:ae:8c:da:e1:08:6c:1d:85:
                    41:11:91:02:19:83:24:7e:f8:46:b9:13:e0:37:a3:
                    5c:10:93:8b:db:8b:c2:f7:87:ab:a4:0e:7a:7a:bf:
                    b6:6d:47:14:49:55:f7:95:4e:ec:3f:0c:d3:55:7b:
                    ca:60:3a:58:be:de:cc:4f:0d:6c:67:1e:2d:8a:95:
                    f6:15:87:72:64:9e:ff:73:c6:ba:88:a4:7c:89:bb:
                    bb:6c:93:85:7b:af:82:96:9f:41:33:df:96:53:92:
                    ca:fa:6f:c3:22:30:57:f2:2e:4b:b2:4b:cb:f1:66:
                    02:d3:72:17:5b:34:5b:39:54:16:68:a2:d3:9b:c4:
                    9a:69:d1:34:94:17:5b:fb:90:7f:ae:5b:4e:8b:55:
                    03:23:c1:36:af:03:a3:1a:e8:37:fb:b6:d3:b0:64:
                    5c:2e:0e:29:37:db:bc:fc:cd:30:f3:e2:c0:4b:ec:
                    aa:b0:dd
                Exponent: 65537 (0x10001)
        X509v3 extensions:
            X509v3 Subject Key Identifier: 
                A8:9B:E0:20:32:E8:89:A1:A1:68:B4:2C:25:97:57:C1:97:7D:CD:BC
            X509v3 Authority Key Identifier: 
                keyid:A0:63:BD:55:72:1D:9B:96:8C:07:57:ED:9F:06:33:AD:C3:5F:29:98

            X509v3 Basic Constraints: 
                CA:FALSE
            X509v3 Key Usage: 
                Digital Signature, Key Encipherment
            X509v3 Subject Alternative Name: 
                DNS:noeud_dev2.maple.mdugre.info
            Netscape Comment: 
                OpenSSL Generated Certificate
    Signature Algorithm: sha512WithRSAEncryption
         18:58:54:38:18:2e:ad:35:d8:19:a1:8b:49:47:51:17:e1:40:
         73:71:61:8b:d4:5b:ab:fb:73:09:72:fd:77:5c:3a:f0:8c:3d:
         d9:f6:52:f1:19:95:47:da:ea:5b:7b:f6:f7:ec:08:69:3a:d4:
         85:29:b5:dc:cd:25:a0:8d:ed:34:f7:9b:a8:6e:02:84:18:29:
         48:20:f6:6c:f7:db:da:74:6f:0a:6f:c6:25:66:9d:60:85:95:
         c5:cc:4d:4f:52:b8:a9:70:0c:8e:45:eb:7b:eb:a4:cd:d6:56:
         e0:67:70:cd:e1:54:3e:74:f5:d5:15:e8:19:d9:11:72:27:38:
         b1:de:d2:84:68:c1:17:a2:d8:c5:2d:03:3d:bf:16:d3:f1:b2:
         45:79:99:7f:30:d0:93:37:a6:36:61:6f:2e:db:31:dd:6e:f7:
         ec:42:7e:f5:a3:df:30:f1:24:7f:f8:e9:a3:04:89:99:c7:5a:
         a0:1b:db:04:1b:8f:87:a0:c0:8b:46:bd:81:73:52:bc:c7:bb:
         4e:1d:92:ab:d9:d5:85:07:11:80:d4:a0:2f:70:1b:e0:52:02:
         40:48:11:f4:20:04:ef:56:05:e9:84:15:34:9b:35:ab:be:2f:
         0c:1b:c0:9b:62:ad:00:1c:d4:36:99:a1:06:14:0c:42:aa:21:
         b5:81:6a:64:0c:bc:d6:47:83:99:34:6c:38:48:23:0b:d3:5b:
         09:b5:3d:40:41:87:6b:27:49:e4:1b:17:95:6f:2e:b5:f2:85:
         d5:89:ab:57:16:9c:a8:4c:11:13:38:67:ba:78:12:bb:1f:19:
         fc:7f:37:94:76:e8:21:db:c1:20:de:03:ee:56:c5:bc:60:0d:
         02:ac:38:01:4d:e3:43:d4:80:fa:2c:ff:7b:97:e2:4d:85:dc:
         6f:30:f6:4a:44:a6:83:97:c2:95:7f:ff:e3:77:d6:61:c1:39:
         0a:22:ac:00:37:cc:89:8b:85:7c:b5:44:d9:c1:d5:b4:c5:d7:
         20:a7:6c:59:0f:c4:a7:99:3f:bf:6d:a6:89:42:94:e6:ea:f1:
         b5:32:bd:e3:92:d9:d1:60:b8:b2:42:a2:82:77:d4:87:4c:6b:
         8e:c2:42:c9:5b:70:54:2d:30:a1:6a:46:17:79:da:2c:62:d5:
         f6:ae:51:5a:a6:fd:67:b3:35:d0:8a:38:55:57:7a:e3:54:45:
         9b:a6:c7:ab:86:cb:5e:be:78:1f:35:3f:e9:34:b2:43:9e:f9:
         d8:30:43:47:e1:c8:42:0b:ad:00:1e:c1:47:4b:1c:ec:4b:f0:
         13:47:cd:6d:b9:bf:8b:dd:7f:b0:b7:ed:cc:b9:8c:ca:c6:5a:
         a2:24:eb:16:2d:0a:8e:41:a9:ae:fa:85:42:9c:2b:fb:45:e2:
         e0:e6:ac:6f:6c:dd:95:96:d4:19:ff:1b:16:03:5c:df:e0:20:
         4a:41:48:fd:bd:de:72:84:9e:17:9b:f3:cf:28:50:a9:34:27:
         85:9d:37:07:66:3a:56:e1:91:54:8c:b6:d8:24:3f:39:54:03:
         4a:07:02:54:9e:70:c7:3d:25:ca:ad:08:27:87:02:4c:b7:f7:
         cd:ea:05:86:6a:4b:69:c0:d4:b3:3c:4f:ed:11:61:10:d3:84:
         93:2c:93:18:d4:4b:3d:8b:9e:d4:64:22:20:36:aa:c9:2f:0e:
         c6:69:99:de:15:2a:3b:59:9e:80:47:a1:1f:81:ac:77:66:da:
         1b:c0:ae:01:93:a7:a7:72:c4:d1:fd:9e:42:9d:78:ee:21:60:
         b7:85:b6:d0:4a:e9:80:1d:f0:82:f7:05:70:9c:a7:0e:dd:02:
         98:a9:94:08:5d:50:9f:9f:df:33:77:3f:78:a3:79:2c:ff:b5:
         63:a4:db:98:83:da:89:48:f4:4b:a5:17:50:c4:ae:3a:1e:74:
         6c:d4:8e:cd:ea:d2:c3:08:81:6f:03:24:d7:e8:5f:14:8f:4c:
         bf:0b:9c:f1:0e:4c:98:6d:81:e9:8e:8a:4e:42:72:f3:9f:b5:
         e4:25:8b:5c:62:7f:e5:c8:cd:30:5c:b0:0f:c4:a9:b3:d5:d9:
         46:00:8f:cb:40:dc:e0:8a:5d:ae:ee:ca:3f:9b:dc:f2:8a:62:
         2b:4b:6c:ed:03:47:6f:8a:84:05:8d:bc:2e:21:8b:22:fa:06:
         8e:22:ee:63:5b:46:5f:a4:98:47:bc:04:b9:0d:d5:e0:b9:85:
         06:58:8c:8f:bd:76:26:0b:3c:63:2f:a3:86:99:3a:e1:e1:8e:
         c2:db:04:3d:5a:fb:8c:2f:30:37:8d:a3:fa:83:5b:57:1e:3e:
         41:5a:8a:9a:fa:cd:84:8f:e0:5b:a8:0e:01:7b:5a:6d:0b:41:
         0d:29:ec:bb:cb:85:5b:1d:be:81:f4:57:1f:a4:82:29:df:71:
         b5:16:12:c0:24:3a:d5:ec:f1:0e:0e:f9:2d:62:b4:d8:56:eb:
         0b:a1:80:2d:2c:e0:ea:b4:8e:34:96:fb:7e:90:d9:14:45:bf:
         80:23:db:44:05:1d:6c:ad:06:87:7d:81:ec:9c:f3:48:bb:72:
         93:62:f8:e3:c4:43:c2:f1:f2:f0:67:09:bc:0f:ea:a8:c8:de:
         f9:e1:cb:96:10:11:ad:cd:f3:84:c0:32:28:03:77:4c:6a:a7:
         e5:b1:99:20:f9:d8:02:3b:6b:e8:9f:4f:4b:d0:d5:96:38:c3:
         79:b2:2a:8d:3b:63:8a:d0:7d:5c:9b:f6:86:44:b3:35
-----BEGIN CERTIFICATE-----
MIIIIDCCBAigAwIBAgIBAjANBgkqhkiG9w0BAQ0FADB1MQswCQYDVQQGEwJDQTEQ
MA4GA1UECAwHT250YXJpbzEQMA4GA1UEBwwHUnVzc2VsbDENMAsGA1UECgwEZGV2
MjESMBAGA1UECwwJU2lnbmF0dXJlMR8wHQYDVQQDDBZkZXYyLm1hcGxlLm1kdWdy
ZS5pbmZvMB4XDTE5MDExMzE0NDQxNloXDTIxMDEwNDE0NDQxNlowfTELMAkGA1UE
BhMCQ0ExEDAOBgNVBAgMB09udGFyaW8xEDAOBgNVBAcMB1J1c3NlbGwxEzARBgNV
BAoMCmRldjJfbm9ldWQxDjAMBgNVBAsMBU5vZXVkMSUwIwYDVQQDDBxub2V1ZF9k
ZXYyLm1hcGxlLm1kdWdyZS5pbmZvMIICIjANBgkqhkiG9w0BAQEFAAOCAg8AMIIC
CgKCAgEAvW7gF3R4RyoV2yfHmCqjxBPrzv47zm3XWXHHlaxBf/MCsvmMflMsLbxG
wVbVrnIMXyKVicmCBpyjTG3/YNbA+EE5vR1a0aPSsQ+1HjQ0L65Vz9Os5YMwr1yG
+9k7p2z3xMgCw1sJ/fIP1F9L4JAFG6PeDCreinsR1P/mWFtFdl79uCIqLBTSTPn1
7KCiqVTljyL1xs456DhTKL39T0krGJWradksvx4P1vqDg4MxZV2R4YeRpLKUOHRI
KxlWGw2WvochIntqxK44y02lKGhb2ksEW6h4lje9JDMyDnHco5F2uJlrRz+tJcfi
omrcgjcVoo7KopcFOw+gTergyUEosmYB1cXyhhcZ2njlr1C/fTIcf98uaCuvOYdr
H6K4ChjMjrXtz1ypTJhF0adlVRTHg1gThqyoiXCdfVb9CI7KDm6ZGEK3AiBzjOQ/
oVbIC2vmroza4QhsHYVBEZECGYMkfvhGuRPgN6NcEJOL24vC94erpA56er+2bUcU
SVX3lU7sPwzTVXvKYDpYvt7MTw1sZx4tipX2FYdyZJ7/c8a6iKR8ibu7bJOFe6+C
lp9BM9+WU5LK+m/DIjBX8i5LskvL8WYC03IXWzRbOVQWaKLTm8SaadE0lBdb+5B/
rltOi1UDI8E2rwOjGug3+7bTsGRcLg4pN9u8/M0w8+LAS+yqsN0CAwEAAaOBsjCB
rzAdBgNVHQ4EFgQUqJvgIDLoiaGhaLQsJZdXwZd9zbwwHwYDVR0jBBgwFoAUoGO9
VXIdm5aMB1ftnwYzrcNfKZgwCQYDVR0TBAIwADALBgNVHQ8EBAMCBaAwJwYDVR0R
BCAwHoIcbm9ldWRfZGV2Mi5tYXBsZS5tZHVncmUuaW5mbzAsBglghkgBhvhCAQ0E
HxYdT3BlblNTTCBHZW5lcmF0ZWQgQ2VydGlmaWNhdGUwDQYJKoZIhvcNAQENBQAD
ggQBABhYVDgYLq012Bmhi0lHURfhQHNxYYvUW6v7cwly/XdcOvCMPdn2UvEZlUfa
6lt79vfsCGk61IUptdzNJaCN7TT3m6huAoQYKUgg9mz329p0bwpvxiVmnWCFlcXM
TU9SuKlwDI5F63vrpM3WVuBncM3hVD509dUV6BnZEXInOLHe0oRowRei2MUtAz2/
FtPxskV5mX8w0JM3pjZhby7bMd1u9+xCfvWj3zDxJH/46aMEiZnHWqAb2wQbj4eg
wItGvYFzUrzHu04dkqvZ1YUHEYDUoC9wG+BSAkBIEfQgBO9WBemEFTSbNau+Lwwb
wJtirQAc1DaZoQYUDEKqIbWBamQMvNZHg5k0bDhIIwvTWwm1PUBBh2snSeQbF5Vv
LrXyhdWJq1cWnKhMERM4Z7p4ErsfGfx/N5R26CHbwSDeA+5WxbxgDQKsOAFN40PU
gPos/3uX4k2F3G8w9kpEpoOXwpV//+N31mHBOQoirAA3zImLhXy1RNnB1bTF1yCn
bFkPxKeZP79tpolClObq8bUyveOS2dFguLJCooJ31IdMa47CQslbcFQtMKFqRhd5
2ixi1fauUVqm/WezNdCKOFVXeuNURZumx6uGy16+eB81P+k0skOe+dgwQ0fhyEIL
rQAewUdLHOxL8BNHzW25v4vdf7C37cy5jMrGWqIk6xYtCo5Bqa76hUKcK/tF4uDm
rG9s3ZWW1Bn/GxYDXN/gIEpBSP293nKEnheb888oUKk0J4WdNwdmOlbhkVSMttgk
PzlUA0oHAlSecMc9JcqtCCeHAky3983qBYZqS2nA1LM8T+0RYRDThJMskxjUSz2L
ntRkIiA2qskvDsZpmd4VKjtZnoBHoR+BrHdm2hvArgGTp6dyxNH9nkKdeO4hYLeF
ttBK6YAd8IL3BXCcpw7dApiplAhdUJ+f3zN3P3ijeSz/tWOk25iD2olI9EulF1DE
rjoedGzUjs3q0sMIgW8DJNfoXxSPTL8LnPEOTJhtgemOik5CcvOfteQli1xif+XI
zTBcsA/EqbPV2UYAj8tA3OCKXa7uyj+b3PKKYitLbO0DR2+KhAWNvC4hiyL6Bo4i
7mNbRl+kmEe8BLkN1eC5hQZYjI+9diYLPGMvo4aZOuHhjsLbBD1a+4wvMDeNo/qD
W1cePkFaipr6zYSP4FuoDgF7Wm0LQQ0p7LvLhVsdvoH0Vx+kginfcbUWEsAkOtXs
8Q4O+S1itNhW6wuhgC0s4Oq0jjSW+36Q2RRFv4Aj20QFHWytBod9geyc80i7cpNi
+OPEQ8Lx8vBnCbwP6qjI3vnhy5YQEa3N84TAMigDd0xqp+WxmSD52AI7a+ifT0vQ
1ZY4w3myKo07Y4rQfVyb9oZEszU=
-----END CERTIFICATE-----
