Certificate:
    Data:
        Version: 3 (0x2)
        Serial Number: 9 (0x9)
    Signature Algorithm: sha512WithRSAEncryption
        Issuer: C=CA, ST=Ontario, L=Russell, O=MilleGrilles, OU=Signature, CN=millegrilles.com
        Validity
            Not Before: Jan  5 16:52:36 2019 GMT
            Not After : Jan  6 16:52:36 2020 GMT
        Subject: C=CA, ST=Ontario, L=Russell, O=Millegrilles, CN=infraserv2.pivoine.mdugre.info
        Subject Public Key Info:
            Public Key Algorithm: rsaEncryption
                Public-Key: (4096 bit)
                Modulus:
                    00:bb:f1:46:8e:93:64:78:fe:0f:8f:d7:a4:8a:41:
                    e7:dd:9b:5c:4c:57:88:3a:77:11:9d:46:63:55:77:
                    22:1a:d8:fa:14:f5:ca:60:3c:5e:ef:37:f9:7c:4c:
                    cc:b0:73:b3:2b:b4:d7:ed:71:60:ef:2c:8a:d8:1d:
                    0e:21:f1:13:03:97:ba:a8:68:a9:a5:6f:f8:6a:ae:
                    37:64:f9:19:c0:26:62:28:08:b5:0a:e2:70:1f:4a:
                    f4:e6:2c:c1:26:dc:11:e0:6b:0f:7f:3b:98:49:5c:
                    7e:d1:ac:0d:9d:18:c2:39:3f:f7:c2:3c:7d:32:16:
                    d1:65:20:38:87:ea:52:c7:fe:99:b9:dc:cb:3c:08:
                    bd:a1:40:c8:07:38:b3:17:09:75:82:e9:e5:80:f4:
                    80:fd:63:2b:69:1e:5c:24:2d:c3:33:36:02:19:23:
                    53:08:d8:df:df:f0:c0:e3:07:c0:81:64:7c:03:32:
                    d4:99:cf:08:b7:4f:df:38:bc:46:8f:c8:f2:f7:61:
                    6a:80:7a:1d:f4:96:c8:94:e1:83:65:c2:7d:d4:e7:
                    ac:5b:a3:26:af:5c:6e:1d:c2:27:22:26:79:8c:1f:
                    05:22:e3:75:72:dd:7a:af:c5:a5:8f:7e:3e:4b:0e:
                    16:2e:6e:7b:c1:da:24:5f:30:c1:52:ee:e4:30:9c:
                    59:cc:72:d7:c8:f3:f2:69:0f:46:2a:57:c8:74:b0:
                    b6:6e:71:fb:c4:b4:4f:19:7f:0e:cd:27:d8:df:9f:
                    e2:da:be:46:d5:03:80:8e:c0:14:60:ee:c1:96:42:
                    b8:41:90:82:97:36:e8:e7:e2:0a:a7:c4:1d:ca:44:
                    c2:1b:18:74:1b:79:39:6a:1c:73:79:ed:1f:c7:d8:
                    94:9d:21:9f:09:4b:eb:13:ba:c9:56:16:39:8f:ed:
                    4e:9d:ed:50:53:3f:b8:d9:97:00:30:f6:b8:df:7e:
                    f6:27:1a:83:4e:a0:73:aa:33:e5:8f:4f:a0:22:4c:
                    53:e2:30:77:59:da:f2:92:2a:b8:ba:e7:c9:cb:6a:
                    fa:3d:ef:95:3e:c3:4a:e7:79:bb:e3:0b:31:21:d2:
                    01:a3:39:8f:33:da:e1:1a:2e:74:31:96:13:19:b6:
                    2c:b7:07:a0:73:a6:47:d7:02:3d:dc:91:bd:6e:9c:
                    4b:7b:aa:ae:56:9d:3c:10:df:f5:aa:a2:da:a6:19:
                    50:b2:a2:cd:bb:da:f9:da:f9:94:ca:9f:83:33:f3:
                    50:fd:70:05:be:4d:e7:20:e6:b2:27:5d:ef:e6:cd:
                    74:eb:cd:69:e4:84:a2:d9:99:01:6f:a2:71:5e:87:
                    95:76:ca:05:ac:86:70:81:4f:b2:a2:d3:b6:c3:6a:
                    08:24:cd
                Exponent: 65537 (0x10001)
        X509v3 extensions:
            X509v3 Subject Key Identifier: 
                51:9F:93:42:EA:CC:3E:2A:99:28:49:BD:CA:6C:39:93:D8:9C:E9:A0
            X509v3 Authority Key Identifier: 
                keyid:97:AE:90:74:57:C2:5A:59:9B:52:E8:36:CD:9C:45:EC:C8:A2:1A:7C

            X509v3 Basic Constraints: 
                CA:FALSE
            X509v3 Key Usage: 
                Digital Signature, Key Encipherment
            X509v3 Subject Alternative Name: 
                DNS:infraserv2.pivoine.mdugre.info
            Netscape Comment: 
                OpenSSL Generated Certificate
    Signature Algorithm: sha512WithRSAEncryption
         a8:04:d1:67:c7:dd:ac:c1:6c:c2:0d:85:0e:c7:20:01:4d:ac:
         ea:c9:a8:c4:d6:76:65:3b:5f:7c:24:44:cc:2e:b3:c2:3b:3f:
         2e:09:40:f1:04:43:42:d4:f7:0a:25:85:0d:4f:f5:fa:40:c4:
         56:5e:b2:65:94:e9:fa:91:fa:32:90:64:d1:51:c0:0a:61:41:
         b9:5f:27:cf:d7:95:dd:8c:77:af:39:f5:be:5d:a5:20:ac:08:
         fe:9d:99:a0:f6:b1:a1:21:b8:d1:b4:5b:63:90:49:f1:92:3d:
         47:8d:df:a8:ab:2e:e8:62:95:93:c1:23:c3:9a:68:20:fd:d0:
         91:51:8b:d6:c3:ab:8b:83:63:0d:c5:b4:ff:09:62:0a:5f:b3:
         ce:d9:94:db:b0:17:81:52:82:82:b4:da:bb:5d:0e:1b:a8:9f:
         94:05:96:d8:9d:4b:95:5f:db:39:cd:cd:3b:29:e3:fb:4c:7e:
         bc:9c:06:31:63:86:5f:d5:75:40:92:45:b1:d4:db:99:c9:8e:
         49:c6:f5:24:7a:7f:40:bb:32:bd:f9:0e:d4:e9:45:95:34:0e:
         b3:54:86:23:5a:ff:19:18:aa:76:d0:0d:a8:33:08:62:1c:e4:
         af:e7:58:2c:9c:6d:30:58:4a:0b:35:3b:15:06:8d:53:14:19:
         9e:6d:3e:5f:d1:57:dc:0e:a9:67:6e:2a:b3:d9:05:65:85:f1:
         b1:d8:cb:6c:ad:f9:cf:2b:a8:e3:89:76:d7:8b:f7:6e:83:61:
         f4:72:d8:12:07:6e:be:74:ba:3c:3c:19:30:c3:8f:97:67:8e:
         e9:41:93:7e:cb:9e:57:e0:94:f3:23:68:95:43:d4:21:20:26:
         d2:22:2e:94:74:90:cd:91:12:15:0f:48:e9:7f:9f:af:14:84:
         26:7f:a8:3b:76:a9:d3:ab:07:b8:af:04:0e:25:ba:df:ee:4e:
         cb:b3:d7:aa:e6:0d:00:f6:0f:41:44:53:1e:fa:ff:55:cc:58:
         ab:07:86:5e:d9:2f:90:f1:43:5c:78:a4:0e:f5:99:76:bd:a1:
         29:a2:44:09:b8:09:1c:db:63:b2:c8:13:0e:7b:f0:13:83:2f:
         b1:4c:f0:8a:72:eb:89:5f:ec:e7:ea:6d:af:0c:0f:40:6b:96:
         f9:45:09:5c:1e:9a:07:ce:9b:c4:6d:6a:39:3f:6e:64:28:50:
         70:03:ca:68:73:a5:7b:10:4e:d9:33:da:8b:58:ff:ea:24:85:
         e6:04:5c:0d:df:35:c2:74:23:44:b5:f0:a9:d9:d3:6b:ae:94:
         20:04:fa:ac:1e:f9:90:16:6c:aa:a9:69:09:a3:4a:db:c2:9c:
         75:b5:ae:9d:a3:40:87:8e:6a:c8:f7:82:95:63:38:d6:76:96:
         f7:fb:ab:80:5d:3b:a1:34:28:fe:45:15:20:f3:aa:2c:e1:ad:
         e9:13:8b:87:86:54:c1:17:d7:b7:16:80:09:1c:8f:13:79:c4:
         e9:a7:47:a7:23:8f:62:08:35:fd:38:b4:e0:cc:d9:55:31:60:
         6a:b5:1a:57:fd:df:a9:87:76:21:f6:8c:89:9e:f2:67:52:fb:
         5c:b5:43:8b:bc:48:60:cf:83:bc:4c:3d:60:2b:8c:74:51:64:
         4e:d6:73:9b:3e:2a:b3:37:e9:ff:9f:84:d3:7d:98:c0:c4:0c:
         e2:37:ef:42:34:12:bf:4f:96:e8:eb:f1:c4:9d:ce:87:44:94:
         2a:86:a6:7f:e5:45:4e:44:13:da:4b:ea:5d:75:b1:dd:0f:04:
         ef:13:07:3f:97:27:0c:7f:34:32:f0:16:2c:ea:06:5e:20:6f:
         50:78:4f:1d:e6:da:12:04:ca:3f:81:01:28:33:8f:54:87:db:
         d6:16:20:10:34:d0:d1:91:79:3c:da:1c:0c:65:42:67:d4:fd:
         35:88:f7:74:5c:f7:7a:f6:11:66:59:18:8d:3c:24:76:5c:ef:
         9a:12:34:09:3d:d8:cf:a0:00:9c:70:be:95:ef:bc:1a:4b:62:
         63:c0:3a:0b:94:56:6e:17:fd:80:6b:f6:a6:c5:ff:b4:4c:2c:
         75:c6:88:f9:dc:aa:81:1e:31:7b:a5:cd:ff:40:f7:86:83:d5:
         06:04:dc:e5:08:67:45:48:c4:98:d4:f5:23:ee:20:e0:0d:e9:
         86:c1:ca:b0:e5:95:f5:54:ae:c3:d9:d8:55:d4:22:1d:e3:20:
         14:1d:ef:14:17:d6:22:ce:0f:7e:74:9d:dd:58:bf:60:89:b3:
         03:b2:7f:3b:8d:90:fe:26:9c:b3:fb:bd:d7:55:4a:00:42:f2:
         35:13:c4:1a:91:5b:75:86:67:e8:8e:46:45:b4:88:e7:dd:89:
         1d:cc:6b:f0:89:91:71:b5:83:49:6e:9d:10:1e:c3:31:dd:ce:
         90:dd:5c:ab:8f:38:4c:82:e8:58:aa:7e:a6:97:b7:4c:37:f0:
         d0:7a:45:8a:cd:a2:7d:04:48:7b:f0:33:cc:a1:bf:ac:ed:90:
         97:8a:25:3b:8b:7b:09:0b:76:06:2e:e9:34:83:36:5d:ec:a3:
         8f:af:f6:f7:6e:a9:13:d0:f8:f5:c6:f8:5c:10:08:88:bf:da:
         a2:16:f2:25:88:9f:e8:27:60:7e:f7:a6:f3:ba:e8:b8:95:aa:
         ca:ac:cb:ca:8d:fa:7a:c4:39:7c:93:bd:64:3e:48:18:f0:0f:
         17:ac:f6:b2:3a:16:56:8d:ad:a9:fe:76:2a:e3:8b:52
-----BEGIN CERTIFICATE-----
MIIIGDCCBACgAwIBAgIBCTANBgkqhkiG9w0BAQ0FADB3MQswCQYDVQQGEwJDQTEQ
MA4GA1UECAwHT250YXJpbzEQMA4GA1UEBwwHUnVzc2VsbDEVMBMGA1UECgwMTWls
bGVHcmlsbGVzMRIwEAYDVQQLDAlTaWduYXR1cmUxGTAXBgNVBAMMEG1pbGxlZ3Jp
bGxlcy5jb20wHhcNMTkwMTA1MTY1MjM2WhcNMjAwMTA2MTY1MjM2WjBxMQswCQYD
VQQGEwJDQTEQMA4GA1UECAwHT250YXJpbzEQMA4GA1UEBwwHUnVzc2VsbDEVMBMG
A1UECgwMTWlsbGVncmlsbGVzMScwJQYDVQQDDB5pbmZyYXNlcnYyLnBpdm9pbmUu
bWR1Z3JlLmluZm8wggIiMA0GCSqGSIb3DQEBAQUAA4ICDwAwggIKAoICAQC78UaO
k2R4/g+P16SKQefdm1xMV4g6dxGdRmNVdyIa2PoU9cpgPF7vN/l8TMywc7MrtNft
cWDvLIrYHQ4h8RMDl7qoaKmlb/hqrjdk+RnAJmIoCLUK4nAfSvTmLMEm3BHgaw9/
O5hJXH7RrA2dGMI5P/fCPH0yFtFlIDiH6lLH/pm53Ms8CL2hQMgHOLMXCXWC6eWA
9ID9YytpHlwkLcMzNgIZI1MI2N/f8MDjB8CBZHwDMtSZzwi3T984vEaPyPL3YWqA
eh30lsiU4YNlwn3U56xboyavXG4dwiciJnmMHwUi43Vy3XqvxaWPfj5LDhYubnvB
2iRfMMFS7uQwnFnMctfI8/JpD0YqV8h0sLZucfvEtE8Zfw7NJ9jfn+LavkbVA4CO
wBRg7sGWQrhBkIKXNujn4gqnxB3KRMIbGHQbeTlqHHN57R/H2JSdIZ8JS+sTuslW
FjmP7U6d7VBTP7jZlwAw9rjffvYnGoNOoHOqM+WPT6AiTFPiMHdZ2vKSKri658nL
avo975U+w0rnebvjCzEh0gGjOY8z2uEaLnQxlhMZtiy3B6BzpkfXAj3ckb1unEt7
qq5WnTwQ3/WqotqmGVCyos272vna+ZTKn4Mz81D9cAW+Tecg5rInXe/mzXTrzWnk
hKLZmQFvonFeh5V2ygWshnCBT7Ki07bDaggkzQIDAQABo4G0MIGxMB0GA1UdDgQW
BBRRn5NC6sw+KpkoSb3KbDmT2JzpoDAfBgNVHSMEGDAWgBSXrpB0V8JaWZtS6DbN
nEXsyKIafDAJBgNVHRMEAjAAMAsGA1UdDwQEAwIFoDApBgNVHREEIjAggh5pbmZy
YXNlcnYyLnBpdm9pbmUubWR1Z3JlLmluZm8wLAYJYIZIAYb4QgENBB8WHU9wZW5T
U0wgR2VuZXJhdGVkIENlcnRpZmljYXRlMA0GCSqGSIb3DQEBDQUAA4IEAQCoBNFn
x92swWzCDYUOxyABTazqyajE1nZlO198JETMLrPCOz8uCUDxBENC1PcKJYUNT/X6
QMRWXrJllOn6kfoykGTRUcAKYUG5XyfP15XdjHevOfW+XaUgrAj+nZmg9rGhIbjR
tFtjkEnxkj1Hjd+oqy7oYpWTwSPDmmgg/dCRUYvWw6uLg2MNxbT/CWIKX7PO2ZTb
sBeBUoKCtNq7XQ4bqJ+UBZbYnUuVX9s5zc07KeP7TH68nAYxY4Zf1XVAkkWx1NuZ
yY5JxvUken9AuzK9+Q7U6UWVNA6zVIYjWv8ZGKp20A2oMwhiHOSv51gsnG0wWEoL
NTsVBo1TFBmebT5f0VfcDqlnbiqz2QVlhfGx2MtsrfnPK6jjiXbXi/dug2H0ctgS
B26+dLo8PBkww4+XZ47pQZN+y55X4JTzI2iVQ9QhICbSIi6UdJDNkRIVD0jpf5+v
FIQmf6g7dqnTqwe4rwQOJbrf7k7Ls9eq5g0A9g9BRFMe+v9VzFirB4Ze2S+Q8UNc
eKQO9Zl2vaEpokQJuAkc22OyyBMOe/ATgy+xTPCKcuuJX+zn6m2vDA9Aa5b5RQlc
HpoHzpvEbWo5P25kKFBwA8poc6V7EE7ZM9qLWP/qJIXmBFwN3zXCdCNEtfCp2dNr
rpQgBPqsHvmQFmyqqWkJo0rbwpx1ta6do0CHjmrI94KVYzjWdpb3+6uAXTuhNCj+
RRUg86os4a3pE4uHhlTBF9e3FoAJHI8TecTpp0enI49iCDX9OLTgzNlVMWBqtRpX
/d+ph3Yh9oyJnvJnUvtctUOLvEhgz4O8TD1gK4x0UWRO1nObPiqzN+n/n4TTfZjA
xAziN+9CNBK/T5bo6/HEnc6HRJQqhqZ/5UVORBPaS+pddbHdDwTvEwc/lycMfzQy
8BYs6gZeIG9QeE8d5toSBMo/gQEoM49Uh9vWFiAQNNDRkXk82hwMZUJn1P01iPd0
XPd69hFmWRiNPCR2XO+aEjQJPdjPoACccL6V77waS2JjwDoLlFZuF/2Aa/amxf+0
TCx1xoj53KqBHjF7pc3/QPeGg9UGBNzlCGdFSMSY1PUj7iDgDemGwcqw5ZX1VK7D
2dhV1CId4yAUHe8UF9Yizg9+dJ3dWL9gibMDsn87jZD+Jpyz+73XVUoAQvI1E8Qa
kVt1hmfojkZFtIjn3YkdzGvwiZFxtYNJbp0QHsMx3c6Q3VyrjzhMguhYqn6ml7dM
N/DQekWKzaJ9BEh78DPMob+s7ZCXiiU7i3sJC3YGLuk0gzZd7KOPr/b3bqkT0Pj1
xvhcEAiIv9qiFvIliJ/oJ2B+96bzuui4larKrMvKjfp6xDl8k71kPkgY8A8XrPay
OhZWja2p/nYq44tS
-----END CERTIFICATE-----
