Certificate:
    Data:
        Version: 3 (0x2)
        Serial Number: 17 (0x11)
    Signature Algorithm: sha512WithRSAEncryption
        Issuer: C=CA, ST=Ontario, L=Russell, O=MilleGrilles, OU=Signature, CN=millegrilles.com
        Validity
            Not Before: Jan  7 00:28:29 2019 GMT
            Not After : Jan  8 00:28:29 2020 GMT
        Subject: C=CA, ST=Ontario, L=Russell, O=Millegrilles, CN=vmhost5.pivoine.mdugre.info
        Subject Public Key Info:
            Public Key Algorithm: rsaEncryption
                Public-Key: (4096 bit)
                Modulus:
                    00:e6:8f:63:89:e8:95:58:f9:8b:be:97:ed:3f:0b:
                    25:bb:d0:72:61:7f:fd:b1:00:87:53:4e:c6:9c:3b:
                    84:8f:a0:19:84:d9:77:30:7a:01:69:a1:74:8c:20:
                    6c:44:c6:08:bd:5a:f6:a4:34:f6:70:0c:31:ab:ff:
                    a1:78:86:e6:ee:d4:3c:c9:dc:91:cd:84:60:e5:6c:
                    52:b5:bf:b4:de:53:99:71:2e:e3:8e:9d:a5:4c:c0:
                    0f:3f:5e:21:47:18:27:cf:83:b7:e7:c3:9b:ad:78:
                    67:2f:67:57:28:f3:3c:ab:4d:65:31:83:b6:3d:6a:
                    3b:f9:87:df:d8:1a:db:77:f7:af:87:1d:43:b1:58:
                    ba:3d:1c:b2:26:e0:f1:e1:54:76:f2:24:00:4e:ae:
                    d4:cc:89:91:2c:f8:94:8c:85:91:2c:72:25:81:8f:
                    9a:51:14:8a:62:59:ca:7b:7a:67:3d:f0:1a:43:68:
                    c0:92:06:2d:94:15:e0:f2:2f:39:f5:fa:38:46:9b:
                    3e:85:8c:6c:1f:ef:d5:7c:9c:69:56:27:21:23:45:
                    c4:f0:74:b6:2d:b8:c1:32:fd:9a:5a:d0:e1:0f:31:
                    ae:75:9a:30:1c:26:e9:88:66:9a:1e:5d:d5:40:a1:
                    f4:4d:11:cc:d8:55:81:90:e4:9c:a4:82:9c:a1:e8:
                    db:4c:5d:6b:87:1b:77:79:82:44:04:00:7d:db:ae:
                    dd:38:be:5d:c6:45:52:fe:ec:a8:b0:30:db:98:3e:
                    8f:0d:72:55:0c:c1:57:15:ab:49:0c:85:6f:c0:24:
                    52:eb:75:23:b6:c1:c7:d4:d7:08:cf:32:1f:88:30:
                    7b:d9:6a:da:8b:18:f7:88:51:24:d9:82:b2:43:65:
                    bc:8b:01:52:df:75:7c:8e:14:78:92:22:a4:53:79:
                    f4:6a:ea:a8:40:96:fb:85:97:20:c7:0a:cc:67:71:
                    61:21:05:12:d3:f7:1b:e2:a9:31:ab:56:36:df:be:
                    87:84:5b:22:c3:ff:ca:5b:08:e6:9c:9c:9c:55:6a:
                    fe:78:93:d8:11:ff:72:fa:56:5a:73:a5:ee:09:9b:
                    b2:8a:b2:94:6b:a2:9f:4d:bc:a5:96:44:b2:93:cc:
                    73:f6:a8:46:3d:c8:ed:41:f1:3b:cf:66:b4:5e:5a:
                    a3:8c:94:62:14:9a:d1:66:2d:a6:57:a0:23:04:11:
                    cd:08:dd:67:3c:1b:de:66:86:f3:71:57:05:15:04:
                    32:62:c8:46:34:d2:e7:28:cb:00:04:30:f6:f0:0c:
                    ce:5b:46:90:e4:92:fd:b9:7f:df:7e:39:e3:f4:ae:
                    83:bc:50:42:de:d2:f8:ba:ea:e8:0a:71:34:bd:7e:
                    d1:40:5d
                Exponent: 65537 (0x10001)
        X509v3 extensions:
            X509v3 Subject Key Identifier: 
                DD:54:71:0B:47:94:20:FC:C4:04:87:CB:DF:14:81:D0:D9:F5:D0:18
            X509v3 Authority Key Identifier: 
                keyid:97:AE:90:74:57:C2:5A:59:9B:52:E8:36:CD:9C:45:EC:C8:A2:1A:7C

            X509v3 Basic Constraints: 
                CA:FALSE
            X509v3 Key Usage: 
                Digital Signature, Key Encipherment
            X509v3 Subject Alternative Name: 
                DNS:vmhost5.pivoine.mdugre.info
            Netscape Comment: 
                OpenSSL Generated Certificate
    Signature Algorithm: sha512WithRSAEncryption
         24:14:eb:69:05:fa:65:c3:9a:9e:96:04:ab:73:db:81:1d:d2:
         e0:75:7e:fd:92:11:dd:b4:53:f5:65:f0:0e:c7:96:b6:69:a3:
         32:4a:5e:a2:b1:42:48:f0:b9:f0:23:48:60:ea:cd:80:ae:0a:
         9f:d7:8c:70:66:33:c0:18:4f:e4:88:2b:a2:16:7f:53:8f:af:
         e0:3a:80:44:2f:eb:81:7b:f4:c7:92:ba:79:74:2b:2a:93:6d:
         a2:8f:20:35:2c:dd:aa:59:ac:ac:3e:db:35:8c:e1:59:90:1b:
         d9:22:ee:38:12:dd:f8:1f:b4:b6:c6:87:65:09:4c:8d:7c:ea:
         e3:e9:67:bd:b1:07:63:c0:30:87:09:2c:f3:c9:37:1d:f3:0f:
         44:cc:f0:da:50:1a:30:51:26:ba:ed:1a:fe:04:94:bd:b6:a8:
         c6:2c:c5:4b:34:77:db:43:f0:3d:93:a9:96:62:f5:9c:34:3c:
         a0:69:73:5f:02:a0:7d:b5:5d:0e:2d:fd:a4:39:f2:2b:f8:96:
         37:1b:1a:95:f7:72:04:8f:54:f0:7c:e4:46:61:63:46:12:e6:
         65:ca:e1:cc:89:3f:0a:75:9a:6d:9f:89:80:31:93:35:c1:77:
         60:1e:3d:cb:11:9f:c0:2f:11:27:57:24:10:62:88:59:79:06:
         f2:4f:0b:be:18:e1:8c:a8:b7:af:a5:19:02:97:71:52:d7:cd:
         26:8c:5c:1d:69:ac:5b:c2:34:ec:3c:67:0f:e5:4a:4b:29:eb:
         30:b6:6f:f0:5e:95:61:c8:0c:ff:d8:00:e1:ef:c3:bb:43:46:
         68:5b:87:a5:ea:84:b6:f2:62:9e:a4:f1:e2:70:d6:92:24:50:
         94:f6:84:2e:1f:95:6f:a3:56:51:3c:99:c4:40:51:88:75:cb:
         cb:db:cc:c8:f9:bc:60:41:b3:ec:3c:66:c3:44:7f:46:66:df:
         81:63:bf:3d:15:16:36:d6:cf:78:d0:b9:63:ec:5d:15:29:d9:
         35:27:1c:9e:ba:45:04:bf:64:c1:8d:8e:ef:b6:bb:7f:89:31:
         45:72:09:12:a7:c2:5d:83:62:d4:64:5a:a0:32:4c:62:5a:b4:
         34:2d:c4:63:10:99:2e:e5:f5:10:5b:6d:c5:3c:f9:e5:66:8d:
         25:26:5f:f3:4e:28:5e:6b:51:a2:28:3c:0f:41:69:15:79:ba:
         cf:c5:98:71:76:32:f7:e1:07:62:2a:1b:ae:9a:3b:9c:9b:09:
         1a:6d:bc:05:cc:57:a6:5a:e9:54:c6:62:0b:88:65:f2:5a:2c:
         3d:35:0e:2e:a3:76:08:86:d7:49:bc:d4:88:5c:d4:76:bd:79:
         97:cb:71:51:22:11:e2:c9:16:e7:d1:a5:9e:7f:89:5b:7c:0a:
         86:57:fe:8f:d8:b4:ed:a3:fc:01:99:77:03:c3:bb:a2:cf:13:
         62:b6:5b:e3:84:07:21:41:9c:bb:9b:99:69:00:3f:31:d8:92:
         fd:48:59:ee:1f:bc:f8:50:41:1c:e6:8d:42:b7:c1:79:94:be:
         49:f6:74:54:d8:12:7a:d6:c4:6c:83:39:e3:91:87:3d:17:4a:
         5a:d7:f9:97:43:54:63:c2:67:69:32:c1:5a:f4:43:fc:64:ea:
         55:5b:d3:cc:8a:69:0f:08:18:0b:51:f2:ad:0a:0f:2e:5b:bd:
         29:61:10:a4:60:f3:7a:10:61:90:8c:88:87:0e:8c:5c:88:b0:
         df:be:9f:34:8c:8a:c3:2c:b9:e4:f9:9c:e2:6a:77:0e:05:45:
         6a:91:4d:ac:fc:e5:2c:3a:4e:80:f3:e0:aa:72:6d:92:dd:3e:
         e0:e4:68:45:9f:0d:6b:e4:9c:0f:05:e6:bb:64:4a:d0:e9:f3:
         e7:e8:1e:86:63:25:3f:c5:50:5a:01:0c:1c:a5:f4:92:40:74:
         fa:a3:65:9e:14:c2:2d:f4:5d:cf:63:b7:97:20:91:ff:c6:ef:
         66:13:f4:c2:06:43:48:a2:72:82:1b:05:f4:4f:e1:be:69:74:
         96:b4:60:c0:08:e4:14:7d:b6:6f:17:2e:e1:fb:a2:86:7a:00:
         4d:f6:21:ea:04:9c:7e:d2:de:f0:c0:b2:54:67:b8:ba:58:15:
         be:85:06:f7:76:d6:b6:e0:5f:f0:0b:60:65:a1:f1:e6:13:a0:
         92:98:b9:b2:a7:5e:0b:c7:ce:59:95:a8:66:4c:db:b5:3d:96:
         35:92:bf:cd:3e:2d:ab:27:7e:6d:a3:b6:12:bd:bb:c5:0c:3e:
         bd:93:6a:f4:c2:4d:42:ed:64:66:f0:b7:d8:9a:49:1f:20:af:
         87:c9:b2:94:60:1e:80:93:72:74:80:76:75:dd:24:e9:d4:27:
         ed:dc:7e:40:b7:c5:c7:73:19:85:a3:02:28:df:25:11:0d:d4:
         1d:38:c6:5a:14:b9:f3:9a:6f:61:ea:01:f9:5d:17:6c:ef:5c:
         c9:35:0f:ac:0d:1e:d6:61:79:f7:65:56:c6:a9:c4:fb:31:29:
         bb:f2:6a:d7:65:99:d0:fe:ad:62:d5:50:c8:fc:7f:7a:24:ff:
         5c:0a:69:0e:bc:a5:7c:70:9d:d0:7e:1b:97:26:4a:53:d7:eb:
         45:84:7a:f1:6b:d5:f3:73:a1:a1:9c:62:dd:59:ea:cf:3f:b3:
         83:b1:eb:2f:42:5f:83:6d:ba:f6:2f:26:a6:e8:47:a7:fc:88:
         53:1c:07:18:6d:70:ad:ee:2f:77:49:d3:30:3f:85:b7
-----BEGIN CERTIFICATE-----
MIIIEjCCA/qgAwIBAgIBETANBgkqhkiG9w0BAQ0FADB3MQswCQYDVQQGEwJDQTEQ
MA4GA1UECAwHT250YXJpbzEQMA4GA1UEBwwHUnVzc2VsbDEVMBMGA1UECgwMTWls
bGVHcmlsbGVzMRIwEAYDVQQLDAlTaWduYXR1cmUxGTAXBgNVBAMMEG1pbGxlZ3Jp
bGxlcy5jb20wHhcNMTkwMTA3MDAyODI5WhcNMjAwMTA4MDAyODI5WjBuMQswCQYD
VQQGEwJDQTEQMA4GA1UECAwHT250YXJpbzEQMA4GA1UEBwwHUnVzc2VsbDEVMBMG
A1UECgwMTWlsbGVncmlsbGVzMSQwIgYDVQQDDBt2bWhvc3Q1LnBpdm9pbmUubWR1
Z3JlLmluZm8wggIiMA0GCSqGSIb3DQEBAQUAA4ICDwAwggIKAoICAQDmj2OJ6JVY
+Yu+l+0/CyW70HJhf/2xAIdTTsacO4SPoBmE2XcwegFpoXSMIGxExgi9WvakNPZw
DDGr/6F4hubu1DzJ3JHNhGDlbFK1v7TeU5lxLuOOnaVMwA8/XiFHGCfPg7fnw5ut
eGcvZ1co8zyrTWUxg7Y9ajv5h9/YGtt396+HHUOxWLo9HLIm4PHhVHbyJABOrtTM
iZEs+JSMhZEsciWBj5pRFIpiWcp7emc98BpDaMCSBi2UFeDyLzn1+jhGmz6FjGwf
79V8nGlWJyEjRcTwdLYtuMEy/Zpa0OEPMa51mjAcJumIZpoeXdVAofRNEczYVYGQ
5Jykgpyh6NtMXWuHG3d5gkQEAH3brt04vl3GRVL+7KiwMNuYPo8NclUMwVcVq0kM
hW/AJFLrdSO2wcfU1wjPMh+IMHvZatqLGPeIUSTZgrJDZbyLAVLfdXyOFHiSIqRT
efRq6qhAlvuFlyDHCsxncWEhBRLT9xviqTGrVjbfvoeEWyLD/8pbCOacnJxVav54
k9gR/3L6Vlpzpe4Jm7KKspRrop9NvKWWRLKTzHP2qEY9yO1B8TvPZrReWqOMlGIU
mtFmLaZXoCMEEc0I3Wc8G95mhvNxVwUVBDJiyEY00ucoywAEMPbwDM5bRpDkkv25
f99+OeP0roO8UELe0vi66ugKcTS9ftFAXQIDAQABo4GxMIGuMB0GA1UdDgQWBBTd
VHELR5Qg/MQEh8vfFIHQ2fXQGDAfBgNVHSMEGDAWgBSXrpB0V8JaWZtS6DbNnEXs
yKIafDAJBgNVHRMEAjAAMAsGA1UdDwQEAwIFoDAmBgNVHREEHzAdght2bWhvc3Q1
LnBpdm9pbmUubWR1Z3JlLmluZm8wLAYJYIZIAYb4QgENBB8WHU9wZW5TU0wgR2Vu
ZXJhdGVkIENlcnRpZmljYXRlMA0GCSqGSIb3DQEBDQUAA4IEAQAkFOtpBfplw5qe
lgSrc9uBHdLgdX79khHdtFP1ZfAOx5a2aaMySl6isUJI8LnwI0hg6s2Argqf14xw
ZjPAGE/kiCuiFn9Tj6/gOoBEL+uBe/THkrp5dCsqk22ijyA1LN2qWaysPts1jOFZ
kBvZIu44Et34H7S2xodlCUyNfOrj6We9sQdjwDCHCSzzyTcd8w9EzPDaUBowUSa6
7Rr+BJS9tqjGLMVLNHfbQ/A9k6mWYvWcNDygaXNfAqB9tV0OLf2kOfIr+JY3GxqV
93IEj1TwfORGYWNGEuZlyuHMiT8KdZptn4mAMZM1wXdgHj3LEZ/ALxEnVyQQYohZ
eQbyTwu+GOGMqLevpRkCl3FS180mjFwdaaxbwjTsPGcP5UpLKeswtm/wXpVhyAz/
2ADh78O7Q0ZoW4el6oS28mKepPHicNaSJFCU9oQuH5Vvo1ZRPJnEQFGIdcvL28zI
+bxgQbPsPGbDRH9GZt+BY789FRY21s940Llj7F0VKdk1JxyeukUEv2TBjY7vtrt/
iTFFcgkSp8Jdg2LUZFqgMkxiWrQ0LcRjEJku5fUQW23FPPnlZo0lJl/zTihea1Gi
KDwPQWkVebrPxZhxdjL34QdiKhuumjucmwkabbwFzFemWulUxmILiGXyWiw9NQ4u
o3YIhtdJvNSIXNR2vXmXy3FRIhHiyRbn0aWef4lbfAqGV/6P2LTto/wBmXcDw7ui
zxNitlvjhAchQZy7m5lpAD8x2JL9SFnuH7z4UEEc5o1Ct8F5lL5J9nRU2BJ61sRs
gznjkYc9F0pa1/mXQ1RjwmdpMsFa9EP8ZOpVW9PMimkPCBgLUfKtCg8uW70pYRCk
YPN6EGGQjIiHDoxciLDfvp80jIrDLLnk+ZziancOBUVqkU2s/OUsOk6A8+Cqcm2S
3T7g5GhFnw1r5JwPBea7ZErQ6fPn6B6GYyU/xVBaAQwcpfSSQHT6o2WeFMIt9F3P
Y7eXIJH/xu9mE/TCBkNIonKCGwX0T+G+aXSWtGDACOQUfbZvFy7h+6KGegBN9iHq
BJx+0t7wwLJUZ7i6WBW+hQb3dta24F/wC2BlofHmE6CSmLmyp14Lx85ZlahmTNu1
PZY1kr/NPi2rJ35to7YSvbvFDD69k2r0wk1C7WRm8LfYmkkfIK+HybKUYB6Ak3J0
gHZ13STp1Cft3H5At8XHcxmFowIo3yURDdQdOMZaFLnzmm9h6gH5XRds71zJNQ+s
DR7WYXn3ZVbGqcT7MSm78mrXZZnQ/q1i1VDI/H96JP9cCmkOvKV8cJ3QfhuXJkpT
1+tFhHrxa9Xzc6GhnGLdWerPP7ODsesvQl+Dbbr2Lyam6Een/IhTHAcYbXCt7i93
SdMwP4W3
-----END CERTIFICATE-----
