Certificate:
    Data:
        Version: 3 (0x2)
        Serial Number: 14 (0xe)
    Signature Algorithm: sha512WithRSAEncryption
        Issuer: C=CA, ST=Ontario, L=Russell, O=MilleGrilles, OU=Signature, CN=millegrilles.com
        Validity
            Not Before: Jan  6 18:04:39 2019 GMT
            Not After : Jan  7 18:04:39 2020 GMT
        Subject: C=CA, ST=Ontario, L=Russell, O=Millegrilles, CN=think003.pivoine.mdugre.info
        Subject Public Key Info:
            Public Key Algorithm: rsaEncryption
                Public-Key: (4096 bit)
                Modulus:
                    00:c5:04:ed:01:66:67:d5:49:43:ff:29:e5:54:b7:
                    43:5c:ec:6a:9a:5b:28:65:ac:0f:d2:c6:54:58:5d:
                    5c:b4:29:83:61:43:bd:49:1b:b1:26:6e:4e:e5:dc:
                    5f:22:22:a9:06:2b:ce:78:81:c7:4b:15:b3:dd:9e:
                    30:bf:e3:69:af:cf:c0:e1:1e:96:c3:07:c2:56:19:
                    4c:3c:94:7a:88:0a:8f:cc:6e:5e:2f:b3:0a:78:47:
                    ff:56:41:e6:a1:1c:3e:fa:e7:ee:d4:2a:01:e8:f8:
                    30:22:82:8b:71:c8:cf:c1:fd:c9:4d:0d:8b:be:19:
                    3e:24:0e:d0:1d:53:68:91:78:c9:7d:69:e9:3b:ae:
                    5b:e3:cb:82:f7:c0:98:e7:2e:10:eb:13:fd:e9:13:
                    a6:20:03:20:4f:22:b8:62:23:a8:e2:47:94:47:ab:
                    bb:b6:03:4b:3d:71:0f:00:ec:91:ab:ec:60:9d:13:
                    a1:b4:17:dc:f7:59:5d:9f:71:fc:12:bc:56:26:e8:
                    36:89:bd:09:0c:2e:87:47:13:52:ee:87:76:de:63:
                    52:3e:f0:aa:d5:eb:d6:b2:99:e5:4b:f2:a9:5d:b7:
                    00:1a:cc:70:fb:7a:c0:69:37:36:1f:db:9a:b0:41:
                    1e:f6:7b:7c:e8:7f:a9:0d:52:c8:80:67:61:e7:8c:
                    44:37:4d:8a:61:41:ec:66:76:d1:35:a8:aa:cd:79:
                    19:f8:f0:a4:bd:77:05:df:64:f9:5a:d5:44:45:7c:
                    cb:b1:8d:ae:8e:dc:a5:ed:7d:1a:49:62:2e:bb:f4:
                    71:e7:7e:b5:de:45:24:a4:b0:cb:59:f5:05:79:b7:
                    2e:78:fc:23:71:f2:9e:04:6c:55:30:fb:7e:ff:30:
                    b8:31:da:f8:9f:21:e5:cc:ff:ec:b6:b0:cb:52:ac:
                    49:f8:26:5e:4e:49:91:2e:9f:e6:0c:6c:62:ff:79:
                    f6:d0:9d:91:a2:1c:21:95:a0:ae:17:93:f6:92:6d:
                    d6:6d:c6:70:89:ad:84:25:e6:76:9c:9b:25:0a:ab:
                    80:5b:d4:81:c3:98:54:13:dc:df:57:fc:e8:3b:ba:
                    37:5b:03:3e:7d:83:bb:3e:5f:97:d7:14:22:04:8a:
                    96:2a:76:08:19:27:87:5d:35:2d:7f:95:22:89:76:
                    3a:6d:1c:3d:47:6f:99:0e:8e:e7:f9:1a:a0:a8:a0:
                    59:2c:7d:87:8b:b0:c4:c1:c0:d6:f6:16:62:e8:4c:
                    31:0b:aa:82:06:89:53:0c:e1:f4:7f:0c:cd:25:81:
                    f6:fd:14:56:29:55:6c:c0:77:28:68:a4:82:c7:c2:
                    66:fa:ee:1c:0e:fa:72:e1:10:fa:b3:23:b1:35:ab:
                    37:33:7d
                Exponent: 65537 (0x10001)
        X509v3 extensions:
            X509v3 Subject Key Identifier: 
                C3:24:D3:D6:AA:3D:27:42:11:E8:FC:84:E4:A5:89:44:80:72:AE:69
            X509v3 Authority Key Identifier: 
                keyid:97:AE:90:74:57:C2:5A:59:9B:52:E8:36:CD:9C:45:EC:C8:A2:1A:7C

            X509v3 Basic Constraints: 
                CA:FALSE
            X509v3 Key Usage: 
                Digital Signature, Key Encipherment
            X509v3 Subject Alternative Name: 
                DNS:think003.pivoine.mdugre.info
            Netscape Comment: 
                OpenSSL Generated Certificate
    Signature Algorithm: sha512WithRSAEncryption
         31:dd:80:b6:a0:49:09:65:5c:22:fd:b3:d0:e7:e3:93:1f:d3:
         21:4f:67:c1:76:e5:63:96:d9:ac:ae:7c:66:41:53:6e:1c:79:
         55:54:65:c0:f7:49:bb:77:c3:51:45:9c:62:be:7a:0d:8c:03:
         91:3d:b5:c8:66:4f:54:c8:51:ff:3f:79:40:48:27:a4:41:77:
         d8:76:12:9f:d0:1a:4d:f0:4d:da:2c:96:c8:88:7a:1c:21:73:
         c4:34:d1:46:6e:ba:70:6f:ad:b5:e6:d6:77:d4:ab:0e:8f:5a:
         00:33:fd:2f:a3:72:56:57:37:b9:1a:b0:f2:bd:95:74:93:4b:
         0e:20:da:3c:b0:f2:ca:10:bb:4e:b5:f5:96:f9:73:47:55:ea:
         4b:be:74:d3:94:52:3f:05:3f:cc:b1:34:b7:96:38:db:72:6a:
         5f:b5:18:0f:3a:fd:87:f0:df:e4:46:fd:de:5d:a3:7c:86:5e:
         c6:ec:cf:76:b6:cd:86:45:13:43:65:2d:9c:16:68:35:bb:f6:
         98:4d:bc:dc:51:a0:ca:b7:6e:73:53:cf:05:8e:25:62:eb:35:
         7a:fe:43:24:b8:ee:58:7b:10:c7:6a:72:08:41:d2:64:d6:ae:
         c3:7d:c2:d1:1a:58:0b:7f:65:86:2b:ab:10:08:dc:53:0a:7a:
         ff:dc:06:a5:0e:9b:43:8e:b4:02:31:12:85:8f:76:d8:9d:84:
         ba:42:46:ed:73:91:e5:ac:c9:08:0e:45:4e:b2:38:a4:1d:54:
         53:ce:52:d1:bf:d2:64:ad:86:1d:98:b9:d8:bf:9d:64:4a:07:
         5d:1a:85:54:35:21:68:f4:c7:bc:da:cf:96:7b:20:0a:54:70:
         99:f0:a3:94:aa:19:c4:f3:44:fb:7a:9b:d2:98:7f:0b:0d:40:
         ac:9b:fa:b6:8f:f3:82:49:b9:9f:5b:63:99:af:cc:9b:8b:08:
         c2:7a:3f:c2:56:6b:05:e3:81:c3:5b:38:62:ec:83:b7:06:bb:
         47:c1:f6:2e:ee:c9:5e:0f:f4:39:92:a0:2a:98:3d:4d:0c:22:
         75:c2:52:89:06:66:76:07:9c:75:c3:8c:50:ad:4f:b4:dc:0d:
         05:74:92:85:fa:db:8d:d9:60:87:e1:bf:7c:94:5b:ee:1e:06:
         91:09:92:3b:45:51:16:24:b7:cd:f6:0f:14:bf:81:4e:e5:22:
         a0:9c:2d:d4:29:e8:ef:3c:84:7f:d6:1c:e1:67:50:14:5d:9c:
         0c:57:1c:24:bc:0a:45:38:77:60:61:bb:58:49:3d:12:ca:f8:
         09:01:49:14:b7:9b:f6:d9:d0:84:e3:eb:e8:57:34:0d:96:95:
         50:bf:e2:fc:2c:ed:14:9b:ed:98:c3:31:79:49:07:4e:75:2e:
         0c:4f:a2:32:84:51:f4:29:07:bc:eb:37:cc:c5:3c:45:cd:fe:
         cd:4a:be:bc:f5:6c:c2:8e:67:03:b1:8e:90:82:78:48:6b:42:
         e4:ed:09:e3:d4:9d:02:ec:0f:bb:89:50:c4:0b:68:bd:2e:b2:
         20:bc:c1:ab:87:d4:d9:a3:1d:11:31:fa:4a:a8:a9:e4:50:63:
         15:f1:8b:9c:fe:06:fb:2c:26:8a:4a:3c:2a:94:bb:c8:fa:87:
         44:00:04:d6:9f:39:c6:10:99:73:b9:7e:26:97:1c:89:86:6c:
         90:c4:a9:8b:26:88:7f:f8:eb:2d:c0:e9:01:51:78:f2:bd:59:
         0d:38:69:21:38:24:18:fb:e1:d1:fa:22:7e:3c:a3:db:99:6a:
         d9:07:73:7a:87:85:8a:e0:ec:d8:63:e2:bb:68:15:90:f2:26:
         a6:12:87:0e:3a:1d:8e:d2:ca:21:94:e5:4d:24:a7:b7:92:a4:
         2a:31:93:fd:c1:f4:8c:ee:47:3d:3d:5b:99:10:ff:f7:3d:8b:
         e3:dd:bb:74:fa:b0:f2:bf:25:56:d2:c2:29:a4:b1:9e:46:f6:
         3e:91:07:00:10:08:00:4f:da:3e:9c:3d:72:fa:e9:3e:65:39:
         d0:f2:6e:f1:6c:b8:29:b3:4f:69:d9:81:2a:1b:56:c7:71:00:
         4c:a9:e9:59:02:eb:a6:d7:45:3b:6b:be:49:c4:8a:64:1e:36:
         5a:be:dc:45:09:a4:aa:7e:3c:fb:dd:0b:7b:d1:78:f2:7c:7d:
         08:6f:94:62:d2:1c:03:de:d7:d3:85:92:bc:dd:e3:4f:1f:e9:
         44:36:d8:9f:50:4c:81:2c:f0:78:ff:54:f8:3e:39:ba:2b:ba:
         55:27:fe:f9:69:ec:61:13:19:81:1d:d0:b0:0e:0a:9d:ef:e0:
         0b:3d:73:ca:16:cd:02:cb:36:c0:56:6b:b3:d3:d4:2f:b8:06:
         d9:2b:d4:6d:9d:97:48:8e:9e:a6:92:7b:5b:be:3c:a3:61:10:
         94:7f:56:30:a3:3d:b3:f2:5c:f1:2e:f3:96:7e:02:e4:30:f4:
         52:dd:db:2a:99:98:18:92:ea:a5:bc:b4:a2:c3:f5:df:34:fd:
         02:ba:39:3b:25:63:e6:69:f6:f4:cf:3a:aa:1c:47:bc:08:ea:
         73:35:aa:3b:7a:6e:14:0f:f2:69:7d:98:38:c0:77:1e:21:ea:
         4a:10:0f:0a:79:03:e3:8e:56:6b:42:c6:9f:ec:ed:61:55:d5:
         0b:25:9e:06:5e:ae:5c:cf:d5:dc:ad:ff:e5:1a:29:da:bc:ae:
         6e:d3:cf:6d:d3:76:e8:73:4b:99:31:5f:6e:69:5c:9f
-----BEGIN CERTIFICATE-----
MIIIFDCCA/ygAwIBAgIBDjANBgkqhkiG9w0BAQ0FADB3MQswCQYDVQQGEwJDQTEQ
MA4GA1UECAwHT250YXJpbzEQMA4GA1UEBwwHUnVzc2VsbDEVMBMGA1UECgwMTWls
bGVHcmlsbGVzMRIwEAYDVQQLDAlTaWduYXR1cmUxGTAXBgNVBAMMEG1pbGxlZ3Jp
bGxlcy5jb20wHhcNMTkwMTA2MTgwNDM5WhcNMjAwMTA3MTgwNDM5WjBvMQswCQYD
VQQGEwJDQTEQMA4GA1UECAwHT250YXJpbzEQMA4GA1UEBwwHUnVzc2VsbDEVMBMG
A1UECgwMTWlsbGVncmlsbGVzMSUwIwYDVQQDDBx0aGluazAwMy5waXZvaW5lLm1k
dWdyZS5pbmZvMIICIjANBgkqhkiG9w0BAQEFAAOCAg8AMIICCgKCAgEAxQTtAWZn
1UlD/ynlVLdDXOxqmlsoZawP0sZUWF1ctCmDYUO9SRuxJm5O5dxfIiKpBivOeIHH
SxWz3Z4wv+Npr8/A4R6WwwfCVhlMPJR6iAqPzG5eL7MKeEf/VkHmoRw++ufu1CoB
6PgwIoKLccjPwf3JTQ2Lvhk+JA7QHVNokXjJfWnpO65b48uC98CY5y4Q6xP96ROm
IAMgTyK4YiOo4keUR6u7tgNLPXEPAOyRq+xgnROhtBfc91ldn3H8ErxWJug2ib0J
DC6HRxNS7od23mNSPvCq1evWspnlS/KpXbcAGsxw+3rAaTc2H9uasEEe9nt86H+p
DVLIgGdh54xEN02KYUHsZnbRNaiqzXkZ+PCkvXcF32T5WtVERXzLsY2ujtyl7X0a
SWIuu/Rx53613kUkpLDLWfUFebcuePwjcfKeBGxVMPt+/zC4Mdr4nyHlzP/strDL
UqxJ+CZeTkmRLp/mDGxi/3n20J2RohwhlaCuF5P2km3WbcZwia2EJeZ2nJslCquA
W9SBw5hUE9zfV/zoO7o3WwM+fYO7Pl+X1xQiBIqWKnYIGSeHXTUtf5UiiXY6bRw9
R2+ZDo7n+RqgqKBZLH2Hi7DEwcDW9hZi6EwxC6qCBolTDOH0fwzNJYH2/RRWKVVs
wHcoaKSCx8Jm+u4cDvpy4RD6syOxNas3M30CAwEAAaOBsjCBrzAdBgNVHQ4EFgQU
wyTT1qo9J0IR6PyE5KWJRIByrmkwHwYDVR0jBBgwFoAUl66QdFfCWlmbUug2zZxF
7MiiGnwwCQYDVR0TBAIwADALBgNVHQ8EBAMCBaAwJwYDVR0RBCAwHoIcdGhpbmsw
MDMucGl2b2luZS5tZHVncmUuaW5mbzAsBglghkgBhvhCAQ0EHxYdT3BlblNTTCBH
ZW5lcmF0ZWQgQ2VydGlmaWNhdGUwDQYJKoZIhvcNAQENBQADggQBADHdgLagSQll
XCL9s9Dn45Mf0yFPZ8F25WOW2ayufGZBU24ceVVUZcD3Sbt3w1FFnGK+eg2MA5E9
tchmT1TIUf8/eUBIJ6RBd9h2Ep/QGk3wTdoslsiIehwhc8Q00UZuunBvrbXm1nfU
qw6PWgAz/S+jclZXN7kasPK9lXSTSw4g2jyw8soQu0619Zb5c0dV6ku+dNOUUj8F
P8yxNLeWONtyal+1GA86/Yfw3+RG/d5do3yGXsbsz3a2zYZFE0NlLZwWaDW79phN
vNxRoMq3bnNTzwWOJWLrNXr+QyS47lh7EMdqcghB0mTWrsN9wtEaWAt/ZYYrqxAI
3FMKev/cBqUOm0OOtAIxEoWPdtidhLpCRu1zkeWsyQgORU6yOKQdVFPOUtG/0mSt
hh2Yudi/nWRKB10ahVQ1IWj0x7zaz5Z7IApUcJnwo5SqGcTzRPt6m9KYfwsNQKyb
+raP84JJuZ9bY5mvzJuLCMJ6P8JWawXjgcNbOGLsg7cGu0fB9i7uyV4P9DmSoCqY
PU0MInXCUokGZnYHnHXDjFCtT7TcDQV0koX6243ZYIfhv3yUW+4eBpEJkjtFURYk
t832DxS/gU7lIqCcLdQp6O88hH/WHOFnUBRdnAxXHCS8CkU4d2Bhu1hJPRLK+AkB
SRS3m/bZ0ITj6+hXNA2WlVC/4vws7RSb7ZjDMXlJB051LgxPojKEUfQpB7zrN8zF
PEXN/s1Kvrz1bMKOZwOxjpCCeEhrQuTtCePUnQLsD7uJUMQLaL0usiC8wauH1Nmj
HREx+kqoqeRQYxXxi5z+BvssJopKPCqUu8j6h0QABNafOcYQmXO5fiaXHImGbJDE
qYsmiH/46y3A6QFRePK9WQ04aSE4JBj74dH6In48o9uZatkHc3qHhYrg7Nhj4rto
FZDyJqYShw46HY7SyiGU5U0kp7eSpCoxk/3B9IzuRz09W5kQ//c9i+Pdu3T6sPK/
JVbSwimksZ5G9j6RBwAQCABP2j6cPXL66T5lOdDybvFsuCmzT2nZgSobVsdxAEyp
6VkC66bXRTtrvknEimQeNlq+3EUJpKp+PPvdC3vRePJ8fQhvlGLSHAPe19OFkrzd
408f6UQ22J9QTIEs8Hj/VPg+OborulUn/vlp7GETGYEd0LAOCp3v4As9c8oWzQLL
NsBWa7PT1C+4Btkr1G2dl0iOnqaSe1u+PKNhEJR/VjCjPbPyXPEu85Z+AuQw9FLd
2yqZmBiS6qW8tKLD9d80/QK6OTslY+Zp9vTPOqocR7wI6nM1qjt6bhQP8ml9mDjA
dx4h6koQDwp5A+OOVmtCxp/s7WFV1QslngZerlzP1dyt/+UaKdq8rm7Tz23Tduhz
S5kxX25pXJ8=
-----END CERTIFICATE-----
