Certificate:
    Data:
        Version: 3 (0x2)
        Serial Number: 8 (0x8)
    Signature Algorithm: sha512WithRSAEncryption
        Issuer: C=CA, ST=Ontario, L=Russell, O=MilleGrilles, OU=Signature, CN=dev2.maple.mdugre.info
        Validity
            Not Before: Aug 14 20:35:08 2019 GMT
            Not After : Aug  5 20:35:08 2021 GMT
        Subject: C=CA, ST=Ontario, L=Russell, O=MilleGrilles, OU=MilleGrille, CN=dev2.local
        Subject Public Key Info:
            Public Key Algorithm: rsaEncryption
                Public-Key: (4096 bit)
                Modulus:
                    00:df:4d:95:b1:60:fb:f5:d9:91:fc:54:bd:ba:15:
                    2e:db:4b:55:b4:dd:c9:20:14:5f:5a:7b:cd:07:8b:
                    56:a3:71:87:dc:7e:cd:16:9b:cc:bc:59:cd:4e:11:
                    ef:66:27:63:9f:c7:0d:bc:e8:b5:02:08:ea:d2:04:
                    8a:91:32:ef:84:67:ae:49:c1:61:34:96:8c:98:96:
                    2c:18:c6:c2:0f:ed:0c:a1:25:28:51:3b:1f:06:17:
                    27:9f:89:e3:55:f5:7e:b2:30:5c:dd:98:34:00:a1:
                    9c:65:13:4a:1b:0e:6f:a9:0e:ec:4f:8a:95:a4:ba:
                    aa:f6:89:f7:0d:82:2e:6a:32:a5:b6:bb:47:3a:7a:
                    08:e3:57:dd:91:8d:2d:c8:24:bf:d8:6c:0c:2c:44:
                    2e:5d:43:64:39:66:c8:8e:a9:29:a1:15:b8:24:dd:
                    38:fa:4f:07:19:b6:76:b6:f9:d2:33:3b:83:ea:42:
                    87:82:80:29:0b:15:eb:2b:07:1f:e1:09:a1:0f:83:
                    74:cd:fd:fe:30:c5:9c:e1:3e:b8:9f:49:5f:2d:dc:
                    87:d5:3b:a1:83:10:2e:3a:28:07:41:d1:4a:f3:78:
                    53:2b:84:53:02:d4:08:01:39:4d:79:e3:c8:9a:4c:
                    94:c5:6e:fb:71:77:01:5c:8d:ad:2f:3f:85:e8:f7:
                    07:72:1a:47:2a:00:70:fb:bb:04:79:76:68:4d:9e:
                    27:50:3c:d1:af:49:fc:dc:07:33:d9:4e:29:19:58:
                    cb:cb:28:e6:d4:d8:e5:76:de:6f:ec:4f:44:5e:13:
                    51:82:8e:77:c4:b5:9f:57:8f:ee:79:9b:9c:24:e4:
                    62:e4:d9:e4:8f:13:be:c3:bf:b6:25:19:6c:f9:2a:
                    20:de:86:01:70:75:50:bb:2e:81:e3:b0:56:ea:cb:
                    c3:28:4b:1a:b4:a0:2c:5f:4c:44:5e:81:68:6d:47:
                    17:81:2c:57:86:c5:f1:ec:4b:7d:21:95:30:b8:ae:
                    b7:91:05:19:cf:74:6f:af:71:58:4f:c8:3b:48:c0:
                    d6:ab:1c:89:50:34:59:cb:87:3e:44:be:be:64:38:
                    74:c1:37:8e:e0:db:e3:88:9a:e9:d0:89:a4:3e:38:
                    91:6d:a8:4c:e9:bd:29:bc:78:ec:3c:04:3d:90:b4:
                    ea:19:8d:1f:6c:c5:50:94:b1:24:f7:d1:f3:33:13:
                    7e:e2:dd:e8:7e:0f:e7:58:ee:f3:04:05:7a:91:a8:
                    d5:d2:87:1a:b0:3c:0e:80:56:57:18:fe:9d:72:c8:
                    27:91:58:d5:64:73:f8:72:f8:d3:58:b3:f9:e7:c0:
                    e3:a0:81:a3:5c:56:8f:a6:8d:d2:df:07:47:a1:a4:
                    a9:50:07
                Exponent: 65537 (0x10001)
        X509v3 extensions:
            X509v3 Subject Key Identifier: 
                64:8A:1A:A7:52:0F:9B:60:7A:DB:22:5A:42:8C:D2:96:46:DE:BE:6B
            X509v3 Authority Key Identifier: 
                keyid:C4:BA:83:F8:F6:F5:5F:BA:E9:8E:5F:FB:01:1A:47:AF:BA:BC:F7:EB

            X509v3 Basic Constraints: 
                CA:TRUE
            X509v3 Key Usage: 
                Certificate Sign, CRL Sign
    Signature Algorithm: sha512WithRSAEncryption
         b5:c4:60:67:58:f0:ee:34:78:c9:4c:01:28:ab:dd:97:b6:3f:
         d3:3c:e5:1c:c8:08:70:e3:04:0c:2e:a3:16:82:46:91:16:4d:
         79:ff:d9:b1:79:9f:06:5e:ad:9f:18:a1:7b:e3:c3:18:c3:ff:
         70:15:9a:0e:71:0f:36:90:c2:f7:ca:a6:4e:f8:a7:17:36:3a:
         50:31:3d:32:e6:82:ce:85:0f:96:1a:4f:da:31:f4:14:bd:d5:
         ae:10:0d:f6:07:d9:21:11:04:fb:15:71:40:d4:0a:81:89:ae:
         81:0f:0b:3c:76:d1:95:64:32:50:82:48:30:c4:5a:fb:4d:9c:
         2c:5f:0e:dd:4d:04:bd:c1:cb:84:40:e0:e3:ad:98:0a:53:cf:
         14:a4:08:2a:92:ca:6f:ae:1d:7f:54:d9:f6:56:b3:ea:ee:2d:
         87:2a:21:72:64:93:21:45:7a:9c:f9:c9:56:18:88:ee:82:ba:
         a4:35:11:d3:ab:40:7a:94:27:fd:52:dc:0f:80:c5:e1:f4:48:
         71:c9:a7:61:6c:68:98:8f:3b:8c:43:c6:f9:c5:50:1b:8c:2a:
         e8:2f:dd:25:e0:68:bf:b6:91:fc:ec:2c:3c:2a:ce:08:53:f9:
         f7:cb:18:22:b1:c2:cf:4a:6d:63:73:07:9d:e9:f6:dd:eb:ee:
         3b:98:63:eb:d1:06:93:41:36:31:8b:02:36:1a:3d:02:fa:e7:
         89:2c:7e:e4:07:a7:48:f5:0d:d1:55:7d:f0:0c:b5:6c:b3:8e:
         91:ea:7f:28:98:98:47:98:3b:bb:44:9c:72:ea:98:9d:c0:74:
         7d:b1:b5:89:58:ec:3f:57:25:13:65:0c:89:24:55:e3:b1:37:
         91:cc:8d:fc:15:e8:dc:d4:ce:da:b8:df:32:64:64:14:64:84:
         3d:e8:42:92:f1:90:41:3e:e7:ee:46:73:73:2e:f9:c0:75:d2:
         d8:14:c2:c7:08:88:ab:29:98:86:24:a1:5a:5d:21:44:25:58:
         cf:0b:ff:35:d8:cb:cd:57:36:6f:f7:81:66:75:ad:b8:ec:a4:
         cc:69:a6:44:82:01:90:ed:54:bf:ae:8f:f1:82:93:64:f9:c8:
         9c:db:39:cf:c2:1b:88:ae:78:89:f7:8f:d0:93:48:3c:7e:cb:
         54:fd:e5:f1:5c:d7:dd:fb:82:ed:5b:21:0f:9e:bc:9f:60:f0:
         3d:b0:9e:3e:7a:60:df:7b:f5:46:c7:05:54:09:6f:37:30:33:
         50:4c:83:1d:89:6c:1d:75:7d:3b:9e:4d:21:5a:57:f6:3b:b0:
         7f:df:e5:79:88:20:a0:88:b0:92:43:c9:e2:90:5b:83:ca:7f:
         7a:f4:95:2a:f6:c1:75:d0:bb:4f:8d:01:57:41:cb:d0:fc:ec:
         42:6c:c8:89:31:05:90:23:54:50:83:84:7e:9b:15:ff:95:c4:
         0e:ca:53:1a:a9:6a:dd:9f:4b:2c:c5:04:a6:86:63:f5:ad:68:
         e1:02:29:14:f5:46:ed:d3:82:6f:ab:5d:d0:15:cb:8b:a3:ef:
         4b:66:1a:7d:78:b9:88:f1:59:bf:cd:00:0a:55:7b:ae:70:5c:
         1a:fd:08:35:53:ce:d6:e8:eb:30:01:d1:2a:58:23:ae:b3:38:
         76:ac:d4:17:a1:34:bc:77:09:53:55:94:58:66:7a:81:41:db:
         f5:fa:93:ae:da:db:7a:bc:e1:56:66:61:d0:a0:c5:86:79:c7:
         0f:d0:3e:fc:7c:24:b8:b6:da:4e:87:9c:4a:a8:97:60:e7:a1:
         c3:dd:dd:0e:45:35:d1:4e:4c:f6:e4:aa:c8:3b:df:3d:a6:fb:
         6a:78:94:71:05:91:69:08:0a:2c:48:51:5d:bf:3f:97:7f:38:
         11:53:62:25:10:72:9e:91:78:d2:a6:e2:52:f6:83:86:d0:fc:
         64:9a:07:20:a2:89:85:be:c0:a8:b3:87:70:e4:ce:af:00:e4:
         3e:e2:f9:db:dd:4d:e1:98:43:01:73:7f:15:cc:fd:93:3a:66:
         66:b6:5c:8d:2f:55:d4:11:4e:ec:fc:2b:a4:f4:29:1d:89:56:
         ca:aa:4f:5b:18:10:bd:4f:48:69:97:9d:91:0d:9f:f8:5d:33:
         00:27:78:0e:22:ad:fd:fb:f6:20:af:be:b4:35:b1:c6:c1:41:
         fb:70:1e:27:a4:4c:85:dd:06:a7:c1:12:8c:55:a7:1f:c3:44:
         bb:ea:43:17:fc:9a:21:9e:1c:97:e3:d4:b5:76:42:aa:30:6e:
         a4:96:b0:7f:a5:6e:11:c5:32:42:48:4f:57:bb:36:89:af:5f:
         43:bf:e1:c6:f8:d1:72:b6:96:24:a5:94:cc:99:fe:09:1e:99:
         7e:31:d7:cb:d6:a6:ac:06:a0:fc:62:3e:2f:2b:e0:08:90:e3:
         a9:9b:b4:31:33:a7:7e:bf:c6:3c:b1:8a:fa:3e:74:3b:61:51:
         35:5b:13:1e:20:8d:dc:19:a2:74:e7:34:a5:91:39:ee:d6:a3:
         7e:ab:46:82:19:e0:8e:b3:bd:5e:dd:0e:dd:cb:6c:b1:d5:96:
         d7:3a:1f:e3:16:61:a2:92:1b:93:44:b1:20:c5:35:93:43:89:
         7f:23:e1:d4:0f:e9:0f:29:c4:79:48:66:c3:33:3b:46:41:4a:
         69:a7:1d:b4:8e:c9:f0:97:1c:ac:af:30:d4:59:7d:0f:2a:ac:
         e3:c7:17:01:bc:03:cf:51:a2:ec:52:2c:c8:47:68:79
-----BEGIN CERTIFICATE-----
MIIHyDCCA7CgAwIBAgIBCDANBgkqhkiG9w0BAQ0FADB9MQswCQYDVQQGEwJDQTEQ
MA4GA1UECAwHT250YXJpbzEQMA4GA1UEBwwHUnVzc2VsbDEVMBMGA1UECgwMTWls
bGVHcmlsbGVzMRIwEAYDVQQLDAlTaWduYXR1cmUxHzAdBgNVBAMMFmRldjIubWFw
bGUubWR1Z3JlLmluZm8wHhcNMTkwODE0MjAzNTA4WhcNMjEwODA1MjAzNTA4WjBz
MQswCQYDVQQGEwJDQTEQMA4GA1UECAwHT250YXJpbzEQMA4GA1UEBwwHUnVzc2Vs
bDEVMBMGA1UECgwMTWlsbGVHcmlsbGVzMRQwEgYDVQQLDAtNaWxsZUdyaWxsZTET
MBEGA1UEAwwKZGV2Mi5sb2NhbDCCAiIwDQYJKoZIhvcNAQEBBQADggIPADCCAgoC
ggIBAN9NlbFg+/XZkfxUvboVLttLVbTdySAUX1p7zQeLVqNxh9x+zRabzLxZzU4R
72YnY5/HDbzotQII6tIEipEy74RnrknBYTSWjJiWLBjGwg/tDKElKFE7HwYXJ5+J
41X1frIwXN2YNAChnGUTShsOb6kO7E+KlaS6qvaJ9w2CLmoypba7Rzp6CONX3ZGN
Lcgkv9hsDCxELl1DZDlmyI6pKaEVuCTdOPpPBxm2drb50jM7g+pCh4KAKQsV6ysH
H+EJoQ+DdM39/jDFnOE+uJ9JXy3ch9U7oYMQLjooB0HRSvN4UyuEUwLUCAE5TXnj
yJpMlMVu+3F3AVyNrS8/hej3B3IaRyoAcPu7BHl2aE2eJ1A80a9J/NwHM9lOKRlY
y8so5tTY5Xbeb+xPRF4TUYKOd8S1n1eP7nmbnCTkYuTZ5I8TvsO/tiUZbPkqIN6G
AXB1ULsugeOwVurLwyhLGrSgLF9MRF6BaG1HF4EsV4bF8exLfSGVMLiut5EFGc90
b69xWE/IO0jA1qsciVA0WcuHPkS+vmQ4dME3juDb44ia6dCJpD44kW2oTOm9Kbx4
7DwEPZC06hmNH2zFUJSxJPfR8zMTfuLd6H4P51ju8wQFepGo1dKHGrA8DoBWVxj+
nXLIJ5FY1WRz+HL401iz+efA46CBo1xWj6aN0t8HR6GkqVAHAgMBAAGjXTBbMB0G
A1UdDgQWBBRkihqnUg+bYHrbIlpCjNKWRt6+azAfBgNVHSMEGDAWgBTEuoP49vVf
uumOX/sBGkevurz36zAMBgNVHRMEBTADAQH/MAsGA1UdDwQEAwIBBjANBgkqhkiG
9w0BAQ0FAAOCBAEAtcRgZ1jw7jR4yUwBKKvdl7Y/0zzlHMgIcOMEDC6jFoJGkRZN
ef/ZsXmfBl6tnxihe+PDGMP/cBWaDnEPNpDC98qmTvinFzY6UDE9MuaCzoUPlhpP
2jH0FL3VrhAN9gfZIREE+xVxQNQKgYmugQ8LPHbRlWQyUIJIMMRa+02cLF8O3U0E
vcHLhEDg462YClPPFKQIKpLKb64df1TZ9laz6u4thyohcmSTIUV6nPnJVhiI7oK6
pDUR06tAepQn/VLcD4DF4fRIccmnYWxomI87jEPG+cVQG4wq6C/dJeBov7aR/Ows
PCrOCFP598sYIrHCz0ptY3MHnen23evuO5hj69EGk0E2MYsCNho9AvrniSx+5Aen
SPUN0VV98Ay1bLOOkep/KJiYR5g7u0SccuqYncB0fbG1iVjsP1clE2UMiSRV47E3
kcyN/BXo3NTO2rjfMmRkFGSEPehCkvGQQT7n7kZzcy75wHXS2BTCxwiIqymYhiSh
Wl0hRCVYzwv/NdjLzVc2b/eBZnWtuOykzGmmRIIBkO1Uv66P8YKTZPnInNs5z8Ib
iK54ifeP0JNIPH7LVP3l8VzX3fuC7VshD568n2DwPbCePnpg33v1RscFVAlvNzAz
UEyDHYlsHXV9O55NIVpX9juwf9/leYggoIiwkkPJ4pBbg8p/evSVKvbBddC7T40B
V0HL0PzsQmzIiTEFkCNUUIOEfpsV/5XEDspTGqlq3Z9LLMUEpoZj9a1o4QIpFPVG
7dOCb6td0BXLi6PvS2YafXi5iPFZv80AClV7rnBcGv0INVPO1ujrMAHRKlgjrrM4
dqzUF6E0vHcJU1WUWGZ6gUHb9fqTrtrberzhVmZh0KDFhnnHD9A+/HwkuLbaToec
SqiXYOehw93dDkU10U5M9uSqyDvfPab7aniUcQWRaQgKLEhRXb8/l384EVNiJRBy
npF40qbiUvaDhtD8ZJoHIKKJhb7AqLOHcOTOrwDkPuL5291N4ZhDAXN/Fcz9kzpm
ZrZcjS9V1BFO7PwrpPQpHYlWyqpPWxgQvU9IaZedkQ2f+F0zACd4DiKt/fv2IK++
tDWxxsFB+3AeJ6RMhd0Gp8ESjFWnH8NEu+pDF/yaIZ4cl+PUtXZCqjBupJawf6Vu
EcUyQkhPV7s2ia9fQ7/hxvjRcraWJKWUzJn+CR6ZfjHXy9amrAag/GI+LyvgCJDj
qZu0MTOnfr/GPLGK+j50O2FRNVsTHiCN3BmidOc0pZE57tajfqtGghngjrO9Xt0O
3ctssdWW1zof4xZhopIbk0SxIMU1k0OJfyPh1A/pDynEeUhmwzM7RkFKaacdtI7J
8JccrK8w1Fl9Dyqs48cXAbwDz1Gi7FIsyEdoeQ==
-----END CERTIFICATE-----
