Certificate:
    Data:
        Version: 3 (0x2)
        Serial Number: 9 (0x9)
    Signature Algorithm: sha512WithRSAEncryption
        Issuer: C=CA, ST=Ontario, L=Russell, O=MilleGrilles, OU=Signature, CN=dev2.maple.mdugre.info
        Validity
            Not Before: Aug 14 20:39:36 2019 GMT
            Not After : Aug  5 20:39:36 2021 GMT
        Subject: C=CA, ST=Ontario, L=Russell, O=MilleGrilles, OU=MilleGrille, CN=test1
        Subject Public Key Info:
            Public Key Algorithm: rsaEncryption
                Public-Key: (4096 bit)
                Modulus:
                    00:dc:01:5c:99:58:5e:51:b5:47:47:f0:13:c2:a1:
                    44:13:07:06:3c:6e:35:e5:76:84:e4:15:89:fd:33:
                    db:19:68:94:79:01:e1:86:eb:87:47:cb:f4:e9:cc:
                    2c:d1:c5:ec:60:fb:af:63:76:16:5c:6b:6b:b0:7c:
                    07:31:a6:88:20:70:87:a7:10:67:fc:93:e1:68:80:
                    74:d6:70:d5:ca:1c:ef:3f:26:41:a0:0e:0d:ae:d0:
                    5f:bd:32:64:68:d3:0c:d4:e3:ec:be:d9:52:a8:f8:
                    bd:13:72:8d:01:51:50:8d:7e:ba:db:af:3a:64:25:
                    02:ef:72:60:cf:90:bf:05:a5:68:c0:b5:7a:04:c4:
                    66:62:39:50:04:9c:2f:44:31:5e:59:49:ad:08:72:
                    dd:04:83:fc:94:51:d9:85:96:4f:5f:ce:e0:bc:a2:
                    c6:85:a0:93:15:99:7d:04:c3:3e:41:8f:9d:b9:35:
                    af:23:0b:82:48:60:ec:87:4a:f1:54:fe:31:bb:42:
                    9f:88:92:4e:57:c1:12:58:17:1e:79:ff:3d:2d:27:
                    26:05:80:1b:8e:df:a7:c9:75:0f:38:a8:d8:f7:ca:
                    11:40:90:06:4f:05:56:06:17:fa:80:1c:31:7e:d4:
                    e1:41:d5:2a:8b:20:71:f6:72:64:d1:1e:7e:34:0b:
                    91:52:bc:df:82:9e:4d:8b:f4:a0:13:21:58:ed:62:
                    13:54:87:14:75:69:87:2d:d0:2b:5b:7c:bb:43:53:
                    10:c2:c6:0a:8c:28:ca:30:00:63:c1:ef:ee:54:a8:
                    f3:5a:1c:3b:51:bb:d3:c9:25:a2:1d:53:3a:fb:06:
                    7a:13:d2:18:08:25:92:c6:0e:d8:74:5b:a4:f3:a2:
                    06:88:1b:1f:8f:28:10:5f:b5:b9:71:2b:14:9b:e2:
                    12:c6:7f:7a:ae:16:c8:4f:05:bb:3f:0a:2e:06:8c:
                    27:a5:8a:b4:03:9c:a7:c7:6f:33:6b:bf:4b:d6:b0:
                    85:87:3d:dd:05:0f:7a:e5:73:32:c1:97:06:40:12:
                    3f:5e:68:0a:57:73:fa:1e:af:47:e2:6e:75:ab:c1:
                    09:7c:32:67:c5:f7:0a:fe:bd:e3:a0:a1:94:fe:86:
                    41:99:af:3d:87:f5:d5:c9:86:69:46:84:06:87:31:
                    e0:dc:3c:97:fb:f7:57:81:d6:fc:b9:56:f1:50:10:
                    fc:ae:bc:73:b9:0d:a4:a0:a8:4b:8d:ed:02:6a:b3:
                    b9:a9:73:e3:02:e0:bc:e1:96:c1:de:0f:05:9c:db:
                    8b:10:4d:3b:52:ab:a1:69:ad:28:24:0c:1c:e6:99:
                    f4:e8:33:e0:4b:f4:bb:ab:96:a5:0c:e1:99:42:95:
                    d4:ab:7b
                Exponent: 65537 (0x10001)
        X509v3 extensions:
            X509v3 Subject Key Identifier: 
                6F:C6:8F:20:E8:62:03:EB:50:71:2A:4B:C9:28:33:2C:46:D9:EF:14
            X509v3 Authority Key Identifier: 
                keyid:C4:BA:83:F8:F6:F5:5F:BA:E9:8E:5F:FB:01:1A:47:AF:BA:BC:F7:EB

            X509v3 Basic Constraints: 
                CA:TRUE
            X509v3 Key Usage: 
                Certificate Sign, CRL Sign
    Signature Algorithm: sha512WithRSAEncryption
         a8:a0:69:af:a1:2f:5f:5e:3e:37:ff:25:c2:aa:65:38:dd:d0:
         99:ce:02:af:9f:23:e8:42:47:8c:34:38:5e:b7:14:24:27:a5:
         60:61:ba:de:ea:6e:98:ee:4c:62:25:e4:f9:63:c5:6e:be:2a:
         8e:23:b1:20:61:d1:3a:22:b4:a6:5e:16:b4:bb:a0:a8:fb:d5:
         d4:3d:bb:10:40:1d:57:7d:55:e1:81:d6:7e:24:56:fb:79:ff:
         39:27:0a:b8:bf:2d:69:1c:0b:56:58:a6:80:3c:96:3b:d9:28:
         34:48:f3:bf:15:99:15:85:cf:79:7a:6d:4a:80:cd:bf:30:97:
         df:83:61:e1:a2:f9:1d:5d:99:58:24:27:1f:ad:73:bb:c2:28:
         85:d6:68:0f:ce:29:e0:d1:d2:2f:15:d7:3f:61:b0:6a:03:ac:
         9f:0d:5e:b1:36:4d:fd:86:df:18:9d:0e:a4:79:70:71:09:48:
         0e:35:6a:61:ed:c2:b2:be:93:d9:ee:b9:11:0a:5d:d6:9c:9b:
         98:13:88:9f:f3:40:b0:12:c1:9c:b1:11:9a:1d:1b:3d:cd:1e:
         71:a6:47:c8:00:94:34:1e:b9:85:9a:be:3c:57:f7:c7:dd:98:
         44:57:8e:fd:10:5d:08:6c:b8:6f:7b:0d:2c:c0:ff:ec:72:ec:
         a8:8d:16:c4:52:1c:5d:2e:f9:f4:64:ee:19:13:e5:d0:96:cc:
         29:64:44:cc:f6:58:e3:36:8e:49:00:44:a5:f6:77:aa:9e:03:
         62:5b:18:0e:7b:e2:50:1a:93:63:13:99:b2:57:22:32:1c:c2:
         ed:ee:cf:f4:9c:b0:a6:6b:79:69:dd:29:78:43:55:d8:7c:fb:
         f6:df:23:4e:c2:5b:a0:e2:c5:aa:2d:13:29:1e:ba:68:a0:70:
         b4:4d:2e:40:e6:a8:b3:4b:58:a6:2e:1a:4f:a2:e9:1d:74:f4:
         95:d0:48:92:bf:ae:d6:e3:07:7f:83:09:fa:a4:a1:28:fc:36:
         f4:d1:e8:db:7f:4d:ff:b8:f5:f8:81:4f:f0:08:05:0d:37:e6:
         c3:d2:7b:d8:98:03:e2:14:ff:40:f5:7a:95:6c:8a:7b:f5:f2:
         64:b5:3f:2a:62:70:65:00:28:f5:2c:6b:f0:88:3e:23:78:a1:
         2e:d7:ca:eb:7b:f8:6d:7f:ae:e3:39:42:54:c0:bd:d7:f9:02:
         60:6b:e8:41:ed:22:06:b9:27:19:fb:fb:f3:bf:a7:d5:90:a9:
         72:77:0d:c6:fd:8a:5b:81:64:9b:65:a0:00:6a:00:30:fa:85:
         dd:8a:03:1b:dd:37:1b:3f:0a:e3:bf:26:15:97:f3:4e:70:26:
         3d:c0:d9:6f:cf:93:42:4b:ae:51:7c:a2:e2:a4:f9:58:d8:6e:
         ed:62:1a:d5:6c:e1:5c:d9:52:6a:d1:12:8b:c3:f3:be:00:45:
         c2:0d:f0:b3:75:f9:84:aa:47:3b:20:99:9c:c7:7c:7c:72:8d:
         6c:e2:7e:ab:7a:b8:43:3e:85:36:25:73:dc:e2:8f:f7:83:7b:
         b4:2c:4e:3b:80:89:05:bb:c4:d9:4e:bb:b8:3e:96:2e:06:b7:
         c9:c7:ec:33:80:f9:bc:01:53:96:09:c8:54:13:6e:95:cc:d2:
         e8:d1:cb:7b:91:98:21:e5:a6:91:51:b4:36:f6:88:6a:3c:16:
         c8:19:e5:55:90:02:a6:1c:8a:a0:7e:e8:ea:47:88:a9:12:7c:
         6c:47:03:bd:17:b9:6f:24:e2:3a:c6:86:76:2e:b0:09:17:d0:
         5d:3c:25:a7:58:37:84:35:f4:00:65:56:c0:a2:eb:eb:94:9d:
         6c:93:e2:cd:7d:a9:3c:ff:f1:50:a4:08:24:36:1f:2f:4f:8b:
         59:39:33:ba:33:71:12:00:52:a2:8e:3c:19:70:88:5a:27:95:
         51:de:52:4e:b5:13:b9:7b:72:fb:05:5c:d2:8e:d4:b1:15:fc:
         29:1e:0e:82:38:4f:04:4a:04:6c:90:69:fb:ac:be:15:7a:8f:
         47:9d:32:52:d5:ee:83:3e:fc:85:22:2a:d9:f4:1f:2b:a6:94:
         da:8b:38:3c:37:ff:1b:e0:53:9f:36:68:5c:c2:ba:81:0c:07:
         ff:b8:5a:d7:c1:59:63:da:4e:89:0e:28:6b:de:4b:59:fe:c7:
         bc:3f:de:ec:a4:e2:c3:43:d0:79:d8:94:3a:14:df:06:b1:44:
         97:5e:e2:82:a3:92:4f:85:08:4e:87:ea:12:22:32:3f:a8:89:
         fc:45:e4:fa:97:0a:58:60:87:fd:2b:19:5f:e0:ed:1a:a0:c4:
         33:9f:53:c7:37:de:0c:8d:46:bc:79:7f:42:cb:0e:75:e3:4b:
         77:46:8c:e7:f2:ae:68:6e:0d:92:25:55:22:05:06:fc:45:c0:
         25:fa:9f:78:e9:96:95:22:38:08:08:97:4a:b4:cb:78:99:46:
         e7:25:ab:aa:cf:be:ce:80:35:4a:de:16:53:07:06:9d:5b:17:
         d8:7d:97:54:53:b9:5d:b7:62:ee:ff:f5:1a:58:e0:10:1d:3e:
         0c:50:66:4c:9f:a3:6a:6f:3c:49:4b:a3:21:e0:67:7c:16:0c:
         30:62:c8:04:bb:5e:95:84:94:8b:2b:88:34:35:f7:38:01:07:
         6c:d7:c7:8c:ab:84:6e:d7:5e:d1:86:b7:0d:6a:d3:88:7b:b6:
         f1:a0:78:44:57:f3:75:0b:f5:5b:8b:b6:4d:3f:77:7b
-----BEGIN CERTIFICATE-----
MIIHwzCCA6ugAwIBAgIBCTANBgkqhkiG9w0BAQ0FADB9MQswCQYDVQQGEwJDQTEQ
MA4GA1UECAwHT250YXJpbzEQMA4GA1UEBwwHUnVzc2VsbDEVMBMGA1UECgwMTWls
bGVHcmlsbGVzMRIwEAYDVQQLDAlTaWduYXR1cmUxHzAdBgNVBAMMFmRldjIubWFw
bGUubWR1Z3JlLmluZm8wHhcNMTkwODE0MjAzOTM2WhcNMjEwODA1MjAzOTM2WjBu
MQswCQYDVQQGEwJDQTEQMA4GA1UECAwHT250YXJpbzEQMA4GA1UEBwwHUnVzc2Vs
bDEVMBMGA1UECgwMTWlsbGVHcmlsbGVzMRQwEgYDVQQLDAtNaWxsZUdyaWxsZTEO
MAwGA1UEAwwFdGVzdDEwggIiMA0GCSqGSIb3DQEBAQUAA4ICDwAwggIKAoICAQDc
AVyZWF5RtUdH8BPCoUQTBwY8bjXldoTkFYn9M9sZaJR5AeGG64dHy/TpzCzRxexg
+69jdhZca2uwfAcxpoggcIenEGf8k+FogHTWcNXKHO8/JkGgDg2u0F+9MmRo0wzU
4+y+2VKo+L0Tco0BUVCNfrrbrzpkJQLvcmDPkL8FpWjAtXoExGZiOVAEnC9EMV5Z
Sa0Ict0Eg/yUUdmFlk9fzuC8osaFoJMVmX0Ewz5Bj525Na8jC4JIYOyHSvFU/jG7
Qp+Ikk5XwRJYFx55/z0tJyYFgBuO36fJdQ84qNj3yhFAkAZPBVYGF/qAHDF+1OFB
1SqLIHH2cmTRHn40C5FSvN+Cnk2L9KATIVjtYhNUhxR1aYct0CtbfLtDUxDCxgqM
KMowAGPB7+5UqPNaHDtRu9PJJaIdUzr7BnoT0hgIJZLGDth0W6TzogaIGx+PKBBf
tblxKxSb4hLGf3quFshPBbs/Ci4GjCelirQDnKfHbzNrv0vWsIWHPd0FD3rlczLB
lwZAEj9eaApXc/oer0fibnWrwQl8MmfF9wr+veOgoZT+hkGZrz2H9dXJhmlGhAaH
MeDcPJf791eB1vy5VvFQEPyuvHO5DaSgqEuN7QJqs7mpc+MC4LzhlsHeDwWc24sQ
TTtSq6FprSgkDBzmmfToM+BL9LurlqUM4ZlCldSrewIDAQABo10wWzAdBgNVHQ4E
FgQUb8aPIOhiA+tQcSpLySgzLEbZ7xQwHwYDVR0jBBgwFoAUxLqD+Pb1X7rpjl/7
ARpHr7q89+swDAYDVR0TBAUwAwEB/zALBgNVHQ8EBAMCAQYwDQYJKoZIhvcNAQEN
BQADggQBAKigaa+hL19ePjf/JcKqZTjd0JnOAq+fI+hCR4w0OF63FCQnpWBhut7q
bpjuTGIl5PljxW6+Ko4jsSBh0ToitKZeFrS7oKj71dQ9uxBAHVd9VeGB1n4kVvt5
/zknCri/LWkcC1ZYpoA8ljvZKDRI878VmRWFz3l6bUqAzb8wl9+DYeGi+R1dmVgk
Jx+tc7vCKIXWaA/OKeDR0i8V1z9hsGoDrJ8NXrE2Tf2G3xidDqR5cHEJSA41amHt
wrK+k9nuuREKXdacm5gTiJ/zQLASwZyxEZodGz3NHnGmR8gAlDQeuYWavjxX98fd
mERXjv0QXQhsuG97DSzA/+xy7KiNFsRSHF0u+fRk7hkT5dCWzClkRMz2WOM2jkkA
RKX2d6qeA2JbGA574lAak2MTmbJXIjIcwu3uz/ScsKZreWndKXhDVdh8+/bfI07C
W6DixaotEykeumigcLRNLkDmqLNLWKYuGk+i6R109JXQSJK/rtbjB3+DCfqkoSj8
NvTR6Nt/Tf+49fiBT/AIBQ035sPSe9iYA+IU/0D1epVsinv18mS1PypicGUAKPUs
a/CIPiN4oS7Xyut7+G1/ruM5QlTAvdf5AmBr6EHtIga5Jxn7+/O/p9WQqXJ3Dcb9
iluBZJtloABqADD6hd2KAxvdNxs/CuO/JhWX805wJj3A2W/Pk0JLrlF8ouKk+VjY
bu1iGtVs4VzZUmrREovD874ARcIN8LN1+YSqRzsgmZzHfHxyjWzifqt6uEM+hTYl
c9zij/eDe7QsTjuAiQW7xNlOu7g+li4Gt8nH7DOA+bwBU5YJyFQTbpXM0ujRy3uR
mCHlppFRtDb2iGo8FsgZ5VWQAqYciqB+6OpHiKkSfGxHA70XuW8k4jrGhnYusAkX
0F08JadYN4Q19ABlVsCi6+uUnWyT4s19qTz/8VCkCCQ2Hy9Pi1k5M7ozcRIAUqKO
PBlwiFonlVHeUk61E7l7cvsFXNKO1LEV/CkeDoI4TwRKBGyQafusvhV6j0edMlLV
7oM+/IUiKtn0HyumlNqLODw3/xvgU582aFzCuoEMB/+4WtfBWWPaTokOKGveS1n+
x7w/3uyk4sND0HnYlDoU3waxRJde4oKjkk+FCE6H6hIiMj+oifxF5PqXClhgh/0r
GV/g7RqgxDOfU8c33gyNRrx5f0LLDnXjS3dGjOfyrmhuDZIlVSIFBvxFwCX6n3jp
lpUiOAgIl0q0y3iZRuclq6rPvs6ANUreFlMHBp1bF9h9l1RTuV23Yu7/9RpY4BAd
PgxQZkyfo2pvPElLoyHgZ3wWDDBiyAS7XpWElIsriDQ19zgBB2zXx4yrhG7XXtGG
tw1q04h7tvGgeERX83UL9VuLtk0/d3s=
-----END CERTIFICATE-----
