Certificate:
    Data:
        Version: 3 (0x2)
        Serial Number: 10 (0xa)
    Signature Algorithm: sha512WithRSAEncryption
        Issuer: C=CA, ST=Ontario, L=Russell, O=MilleGrilles, OU=Signature, CN=dev2.maple.mdugre.info
        Validity
            Not Before: Aug 14 20:42:58 2019 GMT
            Not After : Aug  5 20:42:58 2021 GMT
        Subject: C=CA, ST=Ontario, L=Russell, O=MilleGrilles, OU=MilleGrille, CN=test1
        Subject Public Key Info:
            Public Key Algorithm: rsaEncryption
                Public-Key: (4096 bit)
                Modulus:
                    00:cd:12:2e:a3:0f:6a:4a:3e:27:6b:28:35:d8:4e:
                    49:f5:a5:6a:3f:97:2f:04:64:87:3a:cd:69:92:22:
                    b0:ec:bb:54:fb:c9:85:d6:92:f5:be:6a:2d:34:c0:
                    26:b5:96:d5:c9:09:3a:f7:41:93:97:f2:a8:37:76:
                    8c:86:8b:63:0d:54:f7:d7:00:a9:8b:1b:66:da:ab:
                    53:11:39:c6:c8:d3:a3:65:85:41:a3:bc:3e:8b:23:
                    39:e0:cf:04:f6:b8:cf:08:92:5a:09:31:d5:fe:6c:
                    a3:e0:c7:04:88:89:28:2b:b3:f1:2e:44:ff:dd:97:
                    3d:a3:17:00:50:a8:05:99:7a:77:c7:74:1b:b8:1e:
                    28:bc:4c:14:61:57:be:8b:be:90:f7:0a:e2:4b:a1:
                    85:43:77:d8:c3:9e:40:b6:77:03:e7:f9:69:43:a6:
                    ad:dd:a3:c1:16:10:7f:df:c2:47:eb:6a:0c:ea:42:
                    f7:15:84:e1:f7:4d:92:30:15:1d:92:74:a0:2e:73:
                    a9:02:be:c3:21:08:dd:78:9d:6a:5b:73:f8:04:d2:
                    e1:46:d4:ba:2c:82:b8:f4:e9:a7:0b:dc:fa:6c:ab:
                    3c:ed:bb:d4:08:57:74:cf:e5:88:9e:46:9d:8d:98:
                    45:bf:75:9a:a8:db:65:83:3d:4c:2e:96:26:d0:79:
                    6b:ad:6f:86:be:2c:51:72:c2:90:ac:94:c0:c9:46:
                    e5:84:cf:e3:3a:65:01:26:d8:62:fe:d8:6c:10:81:
                    c3:be:c7:5d:93:3d:c7:fc:08:58:51:c1:07:98:75:
                    19:ee:ac:20:36:00:bb:54:b3:f1:70:ee:6e:bb:94:
                    d0:89:32:d9:5d:1d:ab:b3:9f:ba:70:49:6d:69:9a:
                    8a:70:c3:34:11:f5:bd:d7:e0:65:d6:27:a2:7a:c7:
                    e3:2f:eb:43:bd:f4:52:b3:dd:b0:29:4b:26:92:56:
                    8e:d4:9f:71:bf:e9:df:1d:e7:a8:9d:5c:16:86:f8:
                    b1:4d:ff:ca:e4:c3:58:95:1a:59:12:44:c2:45:e4:
                    06:0c:a2:3e:ef:62:38:09:44:8b:4a:54:f5:39:3e:
                    90:60:99:99:2c:18:72:51:d2:60:40:02:3e:2c:1f:
                    e1:90:be:02:55:99:45:ea:f3:49:70:58:5f:ba:91:
                    23:45:0e:a7:8f:5f:7d:80:0c:c9:08:31:56:bb:81:
                    24:39:13:b7:64:01:c7:49:69:54:98:72:43:39:5b:
                    82:3e:4d:a1:59:24:f0:83:f9:d5:7a:b9:e5:6b:f9:
                    54:e0:f9:58:c4:88:4e:2e:11:98:fe:c5:12:63:fd:
                    6b:3a:dd:56:7c:46:c8:ce:e2:43:fc:56:2f:7b:28:
                    dd:76:c1
                Exponent: 65537 (0x10001)
        X509v3 extensions:
            X509v3 Subject Key Identifier: 
                DB:F7:3E:6D:51:45:89:04:C7:26:29:6C:1B:8B:D7:AA:D1:28:7A:B1
            X509v3 Authority Key Identifier: 
                keyid:C4:BA:83:F8:F6:F5:5F:BA:E9:8E:5F:FB:01:1A:47:AF:BA:BC:F7:EB

            X509v3 Basic Constraints: 
                CA:TRUE
            X509v3 Key Usage: 
                Certificate Sign, CRL Sign
    Signature Algorithm: sha512WithRSAEncryption
         28:40:d3:ad:81:62:74:f2:8c:7a:22:21:8f:6a:d9:f5:65:77:
         31:ad:ec:2b:16:b4:27:1a:05:bb:10:db:9e:f0:37:b6:cc:37:
         2a:9a:00:03:b7:4f:02:5e:4d:41:56:e1:b4:2e:47:ae:97:66:
         d6:b0:d9:f4:bf:8f:a1:fc:38:7b:90:ec:d2:0e:11:f2:7b:52:
         74:02:3e:ad:7c:47:26:17:a9:4a:df:9b:f6:bc:58:87:af:33:
         e2:2e:16:08:1b:c3:b8:37:d1:da:46:e6:61:2a:a4:34:62:3c:
         23:2d:a2:9c:99:ca:1b:90:3e:64:20:be:51:d3:31:31:21:a3:
         03:f9:df:6f:1b:03:f3:ec:f9:92:ad:85:24:c7:43:c9:04:b1:
         c8:76:50:06:d9:87:a9:54:f3:d0:f4:d5:4f:8e:ea:cf:94:5c:
         ad:41:c2:ea:f3:db:5e:b1:c2:2d:f7:fc:d7:eb:63:44:f2:5d:
         a7:75:7d:a7:cc:aa:7b:2f:4d:b2:1f:91:10:57:ac:aa:4d:ae:
         2c:3c:67:0f:e3:31:c3:43:d9:50:98:18:33:cf:93:d6:e9:f6:
         ca:6d:ce:22:54:bd:46:bd:18:61:f2:8d:0d:86:2d:36:67:c1:
         c4:f4:75:6a:6a:21:f6:88:91:6c:f5:d9:82:3d:16:26:1d:2a:
         37:ab:2d:a3:8f:31:a7:c3:b1:c8:34:e5:93:65:aa:20:54:3f:
         1c:59:63:8e:db:dc:fb:c5:dd:4c:0c:4a:3b:34:cf:34:36:e0:
         82:01:ed:85:90:58:6a:60:5e:c7:2f:34:c4:2f:12:ed:4a:5c:
         e0:02:08:3f:dc:08:32:57:16:a3:00:e1:44:56:79:2e:4d:90:
         48:0e:55:88:53:61:57:63:fe:5c:8e:ed:27:9b:f9:9f:80:d6:
         ca:75:bb:98:d0:91:5a:13:56:43:ed:16:36:66:57:cc:34:03:
         09:1d:b2:7d:68:2e:74:06:44:dd:b8:40:09:15:87:fb:88:ee:
         2e:06:b3:9e:c4:fb:4b:4e:0a:ca:d8:35:8b:33:18:5b:26:3e:
         f0:2b:d9:8d:d7:3c:11:19:11:7e:82:72:24:f9:64:e9:d2:6e:
         84:a4:85:30:72:e1:d6:39:bb:ab:55:88:09:67:92:09:3b:c2:
         40:56:f5:c4:d2:ba:1b:7c:ac:b1:1a:ba:2c:cb:ee:be:f5:31:
         5d:c1:45:06:0a:96:26:78:f0:d9:09:73:ab:f0:57:a6:21:87:
         35:13:ec:d6:c2:05:7f:2b:7a:f5:5b:7a:ab:1a:75:0d:4b:a3:
         fd:96:fb:96:77:95:4f:64:77:58:a0:74:75:25:bb:c9:27:95:
         01:f9:73:c0:66:20:28:41:76:02:64:0e:f6:3b:e1:65:7f:f0:
         e2:a8:82:38:92:12:b8:c5:d4:b1:9e:df:34:83:72:6e:6b:e5:
         3d:e4:4a:26:2c:74:51:0a:17:01:70:3b:d9:39:37:25:2f:02:
         24:b5:f7:91:b0:7a:16:8a:50:e2:c6:6a:33:23:97:cd:d2:de:
         4f:87:92:f7:8f:9a:28:99:23:50:15:e3:73:4f:49:51:64:ae:
         4d:d4:b9:8f:56:04:22:9f:4b:4c:a9:a1:61:3e:c6:20:87:55:
         86:1f:7a:8c:49:ae:ae:1b:35:70:4e:9a:5e:e0:a7:15:9a:20:
         bd:b6:1d:f5:f6:f4:cd:13:6a:43:62:2a:3b:45:0d:49:7d:1b:
         56:84:bc:05:2c:ce:80:7f:a2:0c:b9:bd:e3:ac:37:bd:0f:bd:
         e0:ee:7b:e0:40:ea:a8:ab:e6:9c:8d:db:5e:62:18:fb:94:85:
         dc:7f:fa:36:14:76:d1:50:c9:97:2b:6e:69:ef:28:35:6c:4a:
         26:04:e8:94:56:d9:08:88:b7:cd:a0:e9:6d:84:b9:91:8f:53:
         4f:63:a7:f8:97:72:1d:01:35:00:6b:05:c9:eb:12:8b:26:39:
         7b:c7:96:f5:67:e5:b4:e8:8b:92:0e:7b:28:6f:36:24:af:b7:
         32:f8:60:f2:82:05:07:63:8f:f1:88:45:70:6c:8a:94:f7:d0:
         cb:ac:92:8f:67:1f:12:1f:39:24:46:46:91:ac:d9:39:bf:c9:
         05:28:d1:6d:41:fd:79:e1:5f:7a:cd:82:ba:ac:69:be:76:5b:
         ca:74:d9:5d:84:06:34:9a:d8:8c:ea:61:71:ac:41:93:c8:1c:
         84:db:96:cb:07:60:99:67:7e:fb:fc:ce:10:8f:66:1f:ef:31:
         6f:ec:00:0b:87:e3:8d:da:77:6e:47:76:eb:88:e6:f4:8d:3e:
         30:33:fd:79:cf:33:44:a8:82:aa:6d:41:d6:08:1a:36:38:3e:
         f7:ac:d3:b5:94:e6:38:d3:41:6c:58:08:21:a1:ad:70:42:28:
         82:d6:f5:f8:95:76:21:47:a7:10:56:a1:39:30:a7:dc:b8:7d:
         ad:f6:bd:58:b9:8e:8b:82:94:db:f3:bd:83:cc:49:a5:cb:a0:
         ae:af:a5:e2:0c:57:d6:3e:cc:2c:70:39:a7:5d:b0:10:41:43:
         1a:93:96:4a:a9:64:d1:5e:ad:b5:af:26:04:5a:81:8f:d5:e6:
         8b:a2:20:6b:89:4a:f1:fe:99:f7:28:17:f3:c7:46:ce:03:02:
         96:9c:85:b2:da:8a:43:11:23:ae:d3:1e:7a:73:76:74:87:8c:
         c5:7f:f6:b3:87:4c:9b:8d:75:f4:63:ff:d2:88:b7:a1
-----BEGIN CERTIFICATE-----
MIIHwzCCA6ugAwIBAgIBCjANBgkqhkiG9w0BAQ0FADB9MQswCQYDVQQGEwJDQTEQ
MA4GA1UECAwHT250YXJpbzEQMA4GA1UEBwwHUnVzc2VsbDEVMBMGA1UECgwMTWls
bGVHcmlsbGVzMRIwEAYDVQQLDAlTaWduYXR1cmUxHzAdBgNVBAMMFmRldjIubWFw
bGUubWR1Z3JlLmluZm8wHhcNMTkwODE0MjA0MjU4WhcNMjEwODA1MjA0MjU4WjBu
MQswCQYDVQQGEwJDQTEQMA4GA1UECAwHT250YXJpbzEQMA4GA1UEBwwHUnVzc2Vs
bDEVMBMGA1UECgwMTWlsbGVHcmlsbGVzMRQwEgYDVQQLDAtNaWxsZUdyaWxsZTEO
MAwGA1UEAwwFdGVzdDEwggIiMA0GCSqGSIb3DQEBAQUAA4ICDwAwggIKAoICAQDN
Ei6jD2pKPidrKDXYTkn1pWo/ly8EZIc6zWmSIrDsu1T7yYXWkvW+ai00wCa1ltXJ
CTr3QZOX8qg3doyGi2MNVPfXAKmLG2baq1MROcbI06NlhUGjvD6LIzngzwT2uM8I
kloJMdX+bKPgxwSIiSgrs/EuRP/dlz2jFwBQqAWZenfHdBu4Hii8TBRhV76LvpD3
CuJLoYVDd9jDnkC2dwPn+WlDpq3do8EWEH/fwkfragzqQvcVhOH3TZIwFR2SdKAu
c6kCvsMhCN14nWpbc/gE0uFG1Losgrj06acL3Ppsqzztu9QIV3TP5YieRp2NmEW/
dZqo22WDPUwulibQeWutb4a+LFFywpCslMDJRuWEz+M6ZQEm2GL+2GwQgcO+x12T
Pcf8CFhRwQeYdRnurCA2ALtUs/Fw7m67lNCJMtldHauzn7pwSW1pmopwwzQR9b3X
4GXWJ6J6x+Mv60O99FKz3bApSyaSVo7Un3G/6d8d56idXBaG+LFN/8rkw1iVGlkS
RMJF5AYMoj7vYjgJRItKVPU5PpBgmZksGHJR0mBAAj4sH+GQvgJVmUXq80lwWF+6
kSNFDqePX32ADMkIMVa7gSQ5E7dkAcdJaVSYckM5W4I+TaFZJPCD+dV6ueVr+VTg
+VjEiE4uEZj+xRJj/Ws63VZ8RsjO4kP8Vi97KN12wQIDAQABo10wWzAdBgNVHQ4E
FgQU2/c+bVFFiQTHJilsG4vXqtEoerEwHwYDVR0jBBgwFoAUxLqD+Pb1X7rpjl/7
ARpHr7q89+swDAYDVR0TBAUwAwEB/zALBgNVHQ8EBAMCAQYwDQYJKoZIhvcNAQEN
BQADggQBAChA062BYnTyjHoiIY9q2fVldzGt7CsWtCcaBbsQ257wN7bMNyqaAAO3
TwJeTUFW4bQuR66XZtaw2fS/j6H8OHuQ7NIOEfJ7UnQCPq18RyYXqUrfm/a8WIev
M+IuFggbw7g30dpG5mEqpDRiPCMtopyZyhuQPmQgvlHTMTEhowP5328bA/Ps+ZKt
hSTHQ8kEsch2UAbZh6lU89D01U+O6s+UXK1Bwurz216xwi33/NfrY0TyXad1fafM
qnsvTbIfkRBXrKpNriw8Zw/jMcND2VCYGDPPk9bp9sptziJUvUa9GGHyjQ2GLTZn
wcT0dWpqIfaIkWz12YI9FiYdKjerLaOPMafDscg05ZNlqiBUPxxZY47b3PvF3UwM
Sjs0zzQ24IIB7YWQWGpgXscvNMQvEu1KXOACCD/cCDJXFqMA4URWeS5NkEgOVYhT
YVdj/lyO7Seb+Z+A1sp1u5jQkVoTVkPtFjZmV8w0Awkdsn1oLnQGRN24QAkVh/uI
7i4Gs57E+0tOCsrYNYszGFsmPvAr2Y3XPBEZEX6CciT5ZOnSboSkhTBy4dY5u6tV
iAlnkgk7wkBW9cTSuht8rLEauizL7r71MV3BRQYKliZ48NkJc6vwV6YhhzUT7NbC
BX8revVbeqsadQ1Lo/2W+5Z3lU9kd1igdHUlu8knlQH5c8BmIChBdgJkDvY74WV/
8OKogjiSErjF1LGe3zSDcm5r5T3kSiYsdFEKFwFwO9k5NyUvAiS195GwehaKUOLG
ajMjl83S3k+HkvePmiiZI1AV43NPSVFkrk3UuY9WBCKfS0ypoWE+xiCHVYYfeoxJ
rq4bNXBOml7gpxWaIL22HfX29M0TakNiKjtFDUl9G1aEvAUszoB/ogy5veOsN70P
veDue+BA6qir5pyN215iGPuUhdx/+jYUdtFQyZcrbmnvKDVsSiYE6JRW2QiIt82g
6W2EuZGPU09jp/iXch0BNQBrBcnrEosmOXvHlvVn5bToi5IOeyhvNiSvtzL4YPKC
BQdjj/GIRXBsipT30Musko9nHxIfOSRGRpGs2Tm/yQUo0W1B/XnhX3rNgrqsab52
W8p02V2EBjSa2IzqYXGsQZPIHITblssHYJlnfvv8zhCPZh/vMW/sAAuH443ad25H
duuI5vSNPjAz/XnPM0SogqptQdYIGjY4Pves07WU5jjTQWxYCCGhrXBCKILW9fiV
diFHpxBWoTkwp9y4fa32vVi5jouClNvzvYPMSaXLoK6vpeIMV9Y+zCxwOaddsBBB
QxqTlkqpZNFerbWvJgRagY/V5ouiIGuJSvH+mfcoF/PHRs4DApachbLaikMRI67T
HnpzdnSHjMV/9rOHTJuNdfRj/9KIt6E=
-----END CERTIFICATE-----
