Certificate:
    Data:
        Version: 3 (0x2)
        Serial Number: 11 (0xb)
    Signature Algorithm: sha512WithRSAEncryption
        Issuer: C=CA, ST=Ontario, L=Russell, O=MilleGrilles, OU=Signature, CN=dev2.maple.mdugre.info
        Validity
            Not Before: Aug 14 20:45:26 2019 GMT
            Not After : Aug  5 20:45:26 2021 GMT
        Subject: C=CA, ST=Ontario, L=Russell, O=MilleGrilles, OU=MilleGrille, CN=test1
        Subject Public Key Info:
            Public Key Algorithm: rsaEncryption
                Public-Key: (4096 bit)
                Modulus:
                    00:ee:e3:36:45:f4:15:4b:5a:4a:06:86:ab:99:4d:
                    63:9c:b1:91:72:19:d5:a7:26:ce:63:bb:7a:a3:d2:
                    49:2a:8f:7d:d2:be:1d:74:59:5f:3a:1f:af:03:68:
                    eb:5f:f9:93:00:32:67:7c:46:ef:b9:d3:d5:49:a4:
                    9a:c3:cc:93:4e:3e:45:a8:de:c1:d0:5a:77:9c:d4:
                    2f:a7:f9:17:12:f5:4f:34:9c:dc:2b:65:cb:66:eb:
                    59:bb:99:4b:c8:9b:14:0c:de:a5:4d:87:f0:8a:e1:
                    57:3d:ff:fa:77:64:63:34:f6:b4:10:f0:06:b9:da:
                    a7:43:20:44:68:36:ab:72:33:e9:0e:53:cd:eb:f6:
                    a5:3c:8f:04:97:61:7f:36:8c:83:80:d3:61:c8:84:
                    72:05:52:bb:3e:45:17:ff:07:73:18:21:fc:4d:55:
                    9c:4e:45:75:64:93:d0:50:3d:0a:75:9b:22:5b:00:
                    ad:30:11:f4:66:f0:d3:83:99:b7:21:65:92:a4:ae:
                    e3:03:7d:69:7d:9c:53:59:dc:08:b5:d5:5c:e6:60:
                    07:bf:ce:f1:70:08:13:a5:e8:45:d4:9b:8d:50:e2:
                    f0:38:01:6d:45:fc:77:6b:6d:17:51:3d:c0:11:21:
                    e1:3a:1f:40:6b:13:82:c6:2c:b7:d8:64:80:e7:0d:
                    d3:e8:ae:c6:b6:d7:64:6a:2b:77:d0:0d:97:5d:9a:
                    97:1f:c7:32:46:8e:1e:f2:a0:42:6a:42:f1:84:5c:
                    18:73:45:b2:87:c8:50:74:1c:97:18:63:39:86:6d:
                    7f:3f:b1:35:ef:8a:fe:d8:ce:ca:43:c4:39:05:3e:
                    b2:ad:64:68:cc:87:b6:a9:b8:1a:78:d9:16:7b:d1:
                    4d:4a:1d:10:86:b9:08:21:66:98:4c:04:a1:ee:bd:
                    df:6b:b4:a0:8c:a0:4d:2a:15:c1:be:29:c0:35:82:
                    2d:0d:77:03:79:60:b2:ad:4c:b3:6a:22:46:02:91:
                    5a:73:bd:1b:ab:f7:fb:79:0b:78:bd:73:63:d4:10:
                    ae:c9:40:b7:4a:83:44:d9:33:9b:c2:bb:6e:ae:15:
                    f8:1d:65:c5:cd:62:24:b0:1f:b4:bb:53:89:d0:b5:
                    9f:fc:e8:37:eb:9c:6d:37:9c:45:68:de:d1:75:44:
                    0e:6e:5f:42:0d:ce:0c:4a:91:b4:35:98:7a:ef:5e:
                    8c:1d:e4:20:13:57:b2:13:e6:e0:69:36:cb:66:60:
                    9d:14:43:5b:33:18:de:b8:6c:08:26:88:8e:31:32:
                    84:0f:dd:95:a6:80:62:07:77:96:b9:16:6b:7c:f1:
                    5a:79:6f:5d:c0:5d:79:63:f1:67:d0:10:da:c2:91:
                    df:fe:35
                Exponent: 65537 (0x10001)
        X509v3 extensions:
            X509v3 Subject Key Identifier: 
                06:26:7F:1B:94:60:23:D1:3C:44:3C:41:38:BD:C6:87:5C:B6:31:7F
            X509v3 Authority Key Identifier: 
                keyid:C4:BA:83:F8:F6:F5:5F:BA:E9:8E:5F:FB:01:1A:47:AF:BA:BC:F7:EB

            X509v3 Basic Constraints: 
                CA:TRUE
            X509v3 Key Usage: 
                Certificate Sign, CRL Sign
    Signature Algorithm: sha512WithRSAEncryption
         8f:ae:e0:98:02:df:ef:f2:3c:72:9c:4b:f6:ca:97:40:43:62:
         53:d7:ff:13:8a:61:4b:68:82:d4:de:40:ed:2a:6c:96:cb:fb:
         2e:5e:82:c8:81:d4:a3:80:c6:fc:ca:3d:15:74:d1:89:a9:fd:
         b5:d2:11:5e:29:3d:c2:22:77:f2:c0:ca:fb:cb:83:43:c9:a9:
         ed:84:4b:a6:4c:21:be:8e:81:7a:b5:9a:5d:70:4f:ed:f3:3b:
         ed:f5:e4:06:0a:bf:36:d5:f9:6e:5a:27:39:a1:96:f5:55:e2:
         73:f8:af:21:11:28:4a:13:1b:01:64:b3:48:4d:8f:ae:83:4e:
         58:c7:05:52:53:cc:82:8f:87:cc:fd:4a:fd:cb:dc:af:9e:76:
         83:20:91:dc:38:81:6d:5b:bf:f7:37:ba:8a:53:7a:ed:6d:16:
         2f:e6:ea:c3:6b:68:74:06:8a:6d:1e:ee:ac:0e:91:55:fd:b9:
         ae:4f:3c:66:63:74:7d:46:24:bf:c4:c2:8e:9e:a2:cb:60:79:
         6b:ff:c4:e0:fd:8b:58:4b:6c:2d:c2:15:51:af:59:6b:af:b0:
         de:81:e2:1a:a9:d5:8c:e3:38:4f:d3:83:aa:55:82:eb:51:07:
         5c:de:41:23:33:a3:e9:ea:6f:01:3f:2d:01:7d:70:c6:4d:b6:
         f1:06:07:9a:0d:41:d5:51:81:20:6f:38:cc:f3:fd:f0:32:ee:
         95:38:6b:9f:7a:33:c4:67:27:91:e9:22:e6:87:6b:ea:ff:12:
         7e:48:7a:27:a5:13:ee:ad:0d:81:d7:ca:ce:10:b3:d6:6e:fc:
         51:98:11:cd:c9:77:06:10:f7:e4:6c:1d:76:aa:31:e0:70:5d:
         48:e0:59:2a:94:e6:d8:d2:b1:c2:84:9b:6d:f0:eb:59:7c:45:
         bf:50:cd:f5:cd:fb:ea:cb:6f:4b:fb:18:4a:a2:88:29:ad:72:
         1e:f5:9f:00:6b:f6:ea:9a:ed:b7:9a:fb:7b:c6:40:55:73:1c:
         ea:0d:9c:6b:e5:c5:9b:ec:bd:fe:d9:c5:39:db:09:84:8a:e1:
         64:73:65:4a:88:bc:4b:9c:f3:4f:70:7c:f9:fa:d2:df:69:a1:
         22:cd:92:0e:9d:97:a9:eb:1f:42:b0:c1:97:76:ae:64:c5:87:
         5e:23:90:56:b0:58:8b:0d:ba:fe:62:17:d2:6b:a9:fb:fe:e6:
         a3:69:1f:38:25:a4:84:5a:8a:ca:18:12:40:b0:02:dd:e0:6b:
         0e:83:a8:ea:90:83:0f:52:15:86:6f:36:42:5c:d1:5e:2a:85:
         20:8d:0b:e1:e8:4c:92:85:62:b0:aa:76:28:d5:3b:b0:41:2a:
         a0:ba:c7:f0:de:de:e4:8e:c4:12:56:28:b6:73:8d:ca:a7:1d:
         2a:44:f1:49:a4:77:c8:43:89:2b:d9:e9:79:75:d0:f1:01:1b:
         0d:4a:41:4c:ea:36:19:2c:d2:0c:6d:7a:5d:4b:57:8c:e2:0c:
         23:d0:86:93:c6:fd:b2:cf:d7:1a:f8:6f:0a:e2:a2:cc:4b:b0:
         18:8e:e5:67:22:4c:56:e3:84:53:e1:82:9b:ae:cf:d0:63:2e:
         92:60:fb:55:79:0f:42:ea:74:b7:82:66:31:74:47:cf:30:42:
         cd:3f:cf:2d:fc:11:b1:22:d1:ce:db:8d:ca:1e:d8:38:b7:47:
         9a:16:52:94:a4:f8:b3:e3:92:30:37:7f:7d:bb:c9:5c:f3:54:
         34:2e:0d:7f:d5:4f:f3:a0:99:7d:79:07:52:c8:9d:f6:fe:93:
         d4:c5:63:81:eb:6d:77:bb:c0:c9:29:99:3c:f5:67:93:20:2f:
         b1:cc:88:27:e3:a9:b5:ab:4f:02:f5:a7:ac:3e:d0:61:31:6f:
         8a:92:83:d3:e8:b1:da:1e:cc:e0:cb:65:a8:13:d9:4a:3b:f4:
         0c:13:9d:26:35:27:13:80:6d:ed:10:ec:a9:01:fd:64:54:ec:
         60:10:39:ca:13:22:66:9e:f2:95:9f:df:ea:4e:ed:21:11:00:
         99:27:f1:17:92:51:36:ba:69:ce:65:62:03:12:2a:4d:05:47:
         e6:8c:61:d4:f1:c1:18:7b:62:e3:d0:27:20:96:2a:17:2f:46:
         2a:41:56:ca:60:04:3e:1d:d8:d5:fb:c2:4b:ec:6e:87:ef:d3:
         02:73:a8:f4:7b:62:d3:0f:e0:e7:7d:1c:cb:14:6e:eb:c5:7b:
         ba:84:99:f3:1f:c4:9f:eb:fd:b0:93:d8:4e:13:16:5f:e6:17:
         39:4c:2c:b7:79:13:92:43:a2:50:29:85:4d:d1:5d:4c:c0:75:
         6a:cf:68:f9:35:a0:63:db:56:51:ab:4f:01:46:c4:cc:66:cd:
         9e:98:b6:9b:be:36:21:6d:f1:9a:bc:76:ca:27:b6:31:b9:04:
         27:1b:7f:45:58:52:90:b0:45:56:36:c8:aa:b3:ab:69:48:99:
         62:63:b9:fd:3e:d8:d2:3f:38:d1:57:2f:a1:35:ac:88:f7:ea:
         58:76:f8:3b:b6:c6:97:a4:ff:ed:95:e5:24:94:f8:26:14:1a:
         d3:65:43:0f:3a:14:db:72:db:bb:38:86:7f:7a:14:a6:d4:de:
         0d:52:b9:b1:cd:0a:29:a0:c8:22:bb:7b:28:fc:d2:dc:88:e0:
         ce:92:77:19:d7:98:7b:86:51:39:45:59:1d:59:e6:9d:32:61:
         b6:09:12:5d:9e:62:f6:df:e6:d4:41:ca:05:98:9e:14
-----BEGIN CERTIFICATE-----
MIIHwzCCA6ugAwIBAgIBCzANBgkqhkiG9w0BAQ0FADB9MQswCQYDVQQGEwJDQTEQ
MA4GA1UECAwHT250YXJpbzEQMA4GA1UEBwwHUnVzc2VsbDEVMBMGA1UECgwMTWls
bGVHcmlsbGVzMRIwEAYDVQQLDAlTaWduYXR1cmUxHzAdBgNVBAMMFmRldjIubWFw
bGUubWR1Z3JlLmluZm8wHhcNMTkwODE0MjA0NTI2WhcNMjEwODA1MjA0NTI2WjBu
MQswCQYDVQQGEwJDQTEQMA4GA1UECAwHT250YXJpbzEQMA4GA1UEBwwHUnVzc2Vs
bDEVMBMGA1UECgwMTWlsbGVHcmlsbGVzMRQwEgYDVQQLDAtNaWxsZUdyaWxsZTEO
MAwGA1UEAwwFdGVzdDEwggIiMA0GCSqGSIb3DQEBAQUAA4ICDwAwggIKAoICAQDu
4zZF9BVLWkoGhquZTWOcsZFyGdWnJs5ju3qj0kkqj33Svh10WV86H68DaOtf+ZMA
Mmd8Ru+509VJpJrDzJNOPkWo3sHQWnec1C+n+RcS9U80nNwrZctm61m7mUvImxQM
3qVNh/CK4Vc9//p3ZGM09rQQ8Aa52qdDIERoNqtyM+kOU83r9qU8jwSXYX82jIOA
02HIhHIFUrs+RRf/B3MYIfxNVZxORXVkk9BQPQp1myJbAK0wEfRm8NODmbchZZKk
ruMDfWl9nFNZ3Ai11VzmYAe/zvFwCBOl6EXUm41Q4vA4AW1F/HdrbRdRPcARIeE6
H0BrE4LGLLfYZIDnDdPorsa212RqK3fQDZddmpcfxzJGjh7yoEJqQvGEXBhzRbKH
yFB0HJcYYzmGbX8/sTXviv7YzspDxDkFPrKtZGjMh7apuBp42RZ70U1KHRCGuQgh
ZphMBKHuvd9rtKCMoE0qFcG+KcA1gi0NdwN5YLKtTLNqIkYCkVpzvRur9/t5C3i9
c2PUEK7JQLdKg0TZM5vCu26uFfgdZcXNYiSwH7S7U4nQtZ/86DfrnG03nEVo3tF1
RA5uX0INzgxKkbQ1mHrvXowd5CATV7IT5uBpNstmYJ0UQ1szGN64bAgmiI4xMoQP
3ZWmgGIHd5a5Fmt88Vp5b13AXXlj8WfQENrCkd/+NQIDAQABo10wWzAdBgNVHQ4E
FgQUBiZ/G5RgI9E8RDxBOL3Gh1y2MX8wHwYDVR0jBBgwFoAUxLqD+Pb1X7rpjl/7
ARpHr7q89+swDAYDVR0TBAUwAwEB/zALBgNVHQ8EBAMCAQYwDQYJKoZIhvcNAQEN
BQADggQBAI+u4JgC3+/yPHKcS/bKl0BDYlPX/xOKYUtogtTeQO0qbJbL+y5egsiB
1KOAxvzKPRV00Ymp/bXSEV4pPcIid/LAyvvLg0PJqe2ES6ZMIb6OgXq1ml1wT+3z
O+315AYKvzbV+W5aJzmhlvVV4nP4ryERKEoTGwFks0hNj66DTljHBVJTzIKPh8z9
Sv3L3K+edoMgkdw4gW1bv/c3uopTeu1tFi/m6sNraHQGim0e7qwOkVX9ua5PPGZj
dH1GJL/Ewo6eostgeWv/xOD9i1hLbC3CFVGvWWuvsN6B4hqp1YzjOE/Tg6pVgutR
B1zeQSMzo+nqbwE/LQF9cMZNtvEGB5oNQdVRgSBvOMzz/fAy7pU4a596M8RnJ5Hp
IuaHa+r/En5IeielE+6tDYHXys4Qs9Zu/FGYEc3JdwYQ9+RsHXaqMeBwXUjgWSqU
5tjSscKEm23w61l8Rb9QzfXN++rLb0v7GEqiiCmtch71nwBr9uqa7bea+3vGQFVz
HOoNnGvlxZvsvf7ZxTnbCYSK4WRzZUqIvEuc809wfPn60t9poSLNkg6dl6nrH0Kw
wZd2rmTFh14jkFawWIsNuv5iF9Jrqfv+5qNpHzglpIRaisoYEkCwAt3gaw6DqOqQ
gw9SFYZvNkJc0V4qhSCNC+HoTJKFYrCqdijVO7BBKqC6x/De3uSOxBJWKLZzjcqn
HSpE8Umkd8hDiSvZ6Xl10PEBGw1KQUzqNhks0gxtel1LV4ziDCPQhpPG/bLP1xr4
bwriosxLsBiO5WciTFbjhFPhgpuuz9BjLpJg+1V5D0LqdLeCZjF0R88wQs0/zy38
EbEi0c7bjcoe2Di3R5oWUpSk+LPjkjA3f327yVzzVDQuDX/VT/OgmX15B1LInfb+
k9TFY4HrbXe7wMkpmTz1Z5MgL7HMiCfjqbWrTwL1p6w+0GExb4qSg9PosdoezODL
ZagT2Uo79AwTnSY1JxOAbe0Q7KkB/WRU7GAQOcoTImae8pWf3+pO7SERAJkn8ReS
UTa6ac5lYgMSKk0FR+aMYdTxwRh7YuPQJyCWKhcvRipBVspgBD4d2NX7wkvsbofv
0wJzqPR7YtMP4Od9HMsUbuvFe7qEmfMfxJ/r/bCT2E4TFl/mFzlMLLd5E5JDolAp
hU3RXUzAdWrPaPk1oGPbVlGrTwFGxMxmzZ6Ytpu+NiFt8Zq8dsontjG5BCcbf0VY
UpCwRVY2yKqzq2lImWJjuf0+2NI/ONFXL6E1rIj36lh2+Du2xpek/+2V5SSU+CYU
GtNlQw86FNty27s4hn96FKbU3g1SubHNCimgyCK7eyj80tyI4M6SdxnXmHuGUTlF
WR1Z5p0yYbYJEl2eYvbf5tRBygWYnhQ=
-----END CERTIFICATE-----
