Certificate:
    Data:
        Version: 3 (0x2)
        Serial Number: 12 (0xc)
    Signature Algorithm: sha512WithRSAEncryption
        Issuer: C=CA, ST=Ontario, L=Russell, O=MilleGrilles, OU=Signature, CN=dev2.maple.mdugre.info
        Validity
            Not Before: Aug 14 20:57:21 2019 GMT
            Not After : Aug  5 20:57:21 2021 GMT
        Subject: C=CA, ST=Ontario, L=Russell, O=MilleGrilles, OU=MilleGrille, CN=test1
        Subject Public Key Info:
            Public Key Algorithm: rsaEncryption
                Public-Key: (4096 bit)
                Modulus:
                    00:ed:86:41:05:75:35:31:e0:1f:12:bc:cf:c1:1e:
                    72:54:f2:a3:e6:91:50:0d:a8:fa:83:0c:0d:7d:1b:
                    75:f7:f2:9c:03:fa:e3:07:b5:ca:d9:0f:10:0d:c0:
                    c1:73:7d:2c:77:f0:c2:12:90:79:eb:85:e9:73:78:
                    22:3d:62:e6:0b:3f:94:98:f5:85:b0:9c:c4:2d:b4:
                    8d:d0:e0:91:93:f7:8b:ad:a8:7d:67:0d:1d:c6:35:
                    6c:e9:24:84:1e:ce:fc:93:75:99:c4:62:ce:81:1c:
                    76:31:bc:6a:4f:82:7d:05:c2:c1:b8:e2:bc:bd:ea:
                    e3:78:f3:62:a9:06:4a:f5:c7:cd:be:a7:2b:19:99:
                    82:02:f2:a9:a4:34:f6:95:d0:13:4d:bf:08:78:da:
                    a4:8e:5d:8a:dd:8a:65:ec:8b:c0:b3:36:6f:16:9b:
                    3a:1e:d2:33:6c:01:8d:6e:6b:60:29:e8:ec:ce:ab:
                    0c:fe:3d:27:8d:79:81:6b:59:ca:f5:99:c2:2c:a1:
                    a2:93:64:f2:9c:12:9b:a6:b7:fe:58:9f:37:6f:1c:
                    db:d9:10:6e:de:2f:0e:c8:ce:b8:f4:47:62:46:b1:
                    c4:3b:98:e3:31:56:c8:ba:c1:ad:1a:a4:ce:0a:32:
                    01:a0:d6:1d:89:7a:f0:19:db:8a:2b:b5:b7:bf:38:
                    e1:06:b1:64:a2:78:b4:b1:2d:9a:e1:0d:9e:43:d5:
                    22:4c:e9:f8:43:b6:5d:1a:32:f1:31:67:94:eb:82:
                    d7:d9:0f:8f:45:b3:ae:6a:01:ca:70:97:c9:26:9a:
                    35:df:f2:22:20:71:ee:cb:44:e2:b1:4c:06:57:72:
                    a8:44:8b:da:ed:e1:a5:5f:40:ea:40:ac:ef:66:2c:
                    28:47:8d:b9:1b:19:d8:57:95:08:34:58:68:0f:28:
                    e8:8c:bc:c7:53:21:32:7f:ff:e6:36:6e:2f:fe:c4:
                    22:15:a0:cf:4a:2f:e1:2e:a3:09:d8:6c:44:fe:08:
                    27:97:57:05:17:d6:4c:48:cc:c6:3b:9a:78:34:de:
                    26:a8:bd:18:f7:85:64:a7:76:a5:06:de:e2:c7:59:
                    19:ce:d3:c8:e1:a4:39:50:de:17:37:86:ca:51:95:
                    2e:e9:82:68:2e:b6:9f:50:85:f1:b2:20:50:7b:a2:
                    65:12:18:0e:97:44:39:d9:1f:de:53:08:f9:33:39:
                    9a:2f:72:af:06:e3:4a:a0:a3:75:9c:3a:93:9a:9f:
                    36:80:e9:70:25:ef:fc:6c:4c:da:76:80:ad:26:38:
                    1d:62:3b:7c:e2:cc:23:77:51:85:a6:0e:c9:1b:18:
                    8d:cf:9b:34:77:ad:b6:f5:00:c7:0a:bd:02:b7:ec:
                    22:d8:27
                Exponent: 65537 (0x10001)
        X509v3 extensions:
            X509v3 Subject Key Identifier: 
                2F:9E:99:C1:0B:40:77:0F:61:81:DD:AC:65:9D:F5:91:75:2C:1B:AF
            X509v3 Authority Key Identifier: 
                keyid:C4:BA:83:F8:F6:F5:5F:BA:E9:8E:5F:FB:01:1A:47:AF:BA:BC:F7:EB

            X509v3 Basic Constraints: 
                CA:TRUE
            X509v3 Key Usage: 
                Certificate Sign, CRL Sign
    Signature Algorithm: sha512WithRSAEncryption
         10:0f:f3:7f:f3:62:13:65:9e:d7:3d:23:d6:1f:3b:97:b5:67:
         5b:87:01:fa:af:16:3e:2d:9a:d8:af:a1:3f:7a:46:b1:d0:ad:
         27:79:ef:a8:8d:b5:b3:e2:43:70:f1:21:63:86:4f:eb:c0:bd:
         ba:f9:31:97:44:90:67:3a:05:19:a7:41:90:f5:92:2c:c8:06:
         ab:21:a3:15:ff:d5:8c:70:ea:82:25:5a:b9:a1:19:2c:3f:42:
         25:bf:9f:a6:34:af:73:40:30:d7:d1:07:04:1a:7a:82:6c:95:
         05:cf:8b:10:d2:a2:bf:ba:93:79:2a:0f:b1:c0:1a:3e:9f:52:
         ce:a9:11:55:31:88:0f:7f:7d:3e:7a:7f:7d:29:81:56:b9:d9:
         6e:08:7e:2f:06:91:62:2b:5c:2b:56:55:0f:71:96:e5:10:b7:
         e0:33:34:16:ae:89:d9:19:30:67:42:83:c0:ad:d5:a8:42:27:
         dd:7a:6f:6c:0b:64:ed:80:38:a0:d6:0a:57:db:4d:69:da:71:
         6f:39:d8:1a:be:32:a2:32:b9:a0:bc:94:34:64:86:d3:73:90:
         ff:c4:7b:1c:d6:f4:7c:6c:86:8a:7a:3a:2f:3f:85:64:75:32:
         3a:9a:b5:8c:c0:26:aa:df:77:78:25:67:72:e1:ec:9e:09:fb:
         b7:c6:b3:dd:8a:db:dd:61:62:d5:9a:f2:43:10:a3:3a:fd:69:
         e0:20:c6:b7:17:47:47:6c:83:91:7a:af:c7:84:9c:ec:a5:cf:
         cf:02:77:1a:ff:ba:fe:5f:bc:94:9e:ef:34:1c:09:06:60:02:
         85:0f:79:01:c9:ac:fd:82:b4:6d:a6:8f:84:60:65:ea:c8:b1:
         6f:8b:eb:8a:f6:de:59:9b:b1:ac:38:d1:16:bd:12:c6:f1:b2:
         c7:d9:75:d5:82:a4:70:83:4d:c7:e2:43:3b:28:ed:04:5a:4b:
         6b:e8:3e:14:9b:e3:35:62:cb:18:5b:9c:f6:1f:1e:e8:4a:e0:
         c7:68:c1:36:a4:26:4e:7a:75:e3:bd:11:0a:b8:5f:97:4c:64:
         ee:9f:ac:cc:89:15:34:f6:58:28:6f:a6:c3:e1:a4:e7:47:49:
         11:ff:ae:8c:47:57:44:ae:12:61:8e:9e:f2:0b:a8:6a:5c:20:
         b6:f7:ec:0a:04:1f:97:0b:17:c0:45:0a:60:54:ec:0e:15:e2:
         45:8b:4f:48:ee:ea:a6:5b:c5:ab:07:8f:d2:a7:cc:63:bd:ae:
         e5:c2:03:19:a9:f7:b5:ca:1a:ab:71:a7:4a:30:ff:99:f9:e8:
         dc:8b:4f:9c:9a:63:b4:be:30:56:43:4d:15:b0:13:41:a8:cf:
         94:5f:e4:f4:58:c6:3c:07:4a:99:73:7c:a3:ca:13:01:45:67:
         4c:8d:06:7e:3a:1a:c8:a2:48:3c:88:84:83:d9:f4:b2:38:19:
         e1:8d:f1:56:b2:62:1e:a4:d0:68:28:4b:86:62:76:90:b4:15:
         af:29:8b:23:67:ac:99:94:f0:da:b6:88:1f:79:6f:85:78:46:
         75:cd:20:57:9d:39:f2:34:4d:77:fe:16:55:5d:2f:dc:2e:63:
         13:f3:11:fa:76:3a:d0:a5:fe:f8:c0:80:a9:93:62:83:04:6b:
         d6:c2:61:de:ca:3f:c5:35:0b:af:76:ab:0f:7e:f0:99:76:9e:
         64:58:6b:9b:b9:10:46:b6:56:5f:db:80:c3:70:d1:2c:60:27:
         d0:87:0a:db:e1:43:c8:dd:e4:2c:8c:0b:d1:8b:95:af:82:55:
         8c:f3:78:db:eb:57:27:84:34:f0:45:22:90:2a:a9:60:0c:b1:
         0b:0a:1e:15:4d:8b:eb:82:7f:ed:6f:a3:11:48:b6:8f:80:9c:
         25:7c:1b:db:0a:2d:da:6a:4f:62:33:21:ea:ef:bd:09:0d:bd:
         f1:7f:4e:26:3b:62:ed:25:68:4e:3a:3b:0f:36:bc:ad:8c:b4:
         70:03:3a:d9:07:f3:a4:e3:50:11:43:0e:d6:53:43:c2:0c:3c:
         df:e1:a8:2a:79:d5:91:0e:75:68:6b:03:87:2a:e3:31:e9:16:
         e5:b2:a5:27:8e:60:5b:84:94:b7:d5:35:a0:da:4c:3b:a3:8a:
         70:1f:30:59:97:19:34:67:8e:78:a0:b9:6a:94:8e:e3:e4:cd:
         88:ef:5b:36:bc:e3:4e:a1:04:b6:84:d4:a3:9f:27:de:a9:ab:
         5b:71:43:8f:3d:a9:b5:ce:0c:a2:8e:12:8a:38:8e:bb:55:12:
         ea:7f:bf:19:0d:aa:21:0c:2e:b5:d7:45:ee:3b:39:43:04:7d:
         bb:2e:fb:06:79:9d:63:70:db:d2:2f:e1:46:67:a1:88:73:8a:
         ba:ac:9d:8b:bf:ff:3f:71:f5:ab:f7:1e:70:3e:2f:f4:59:83:
         ec:e4:a0:85:99:d6:06:8b:a7:6b:b2:63:85:ee:42:60:e5:d2:
         1f:98:e4:7e:ea:d0:6c:4a:38:4b:4a:23:27:ef:8c:de:88:dc:
         c3:8c:31:e7:42:85:ee:59:73:49:f5:76:db:09:6d:91:02:a2:
         f3:88:1d:bf:5e:70:e9:7e:db:46:02:59:b2:5b:dd:6c:c6:26:
         d2:c1:3f:a5:e2:56:e4:f8:42:0d:1b:92:e0:f5:49:07:34:e9:
         e2:e8:fa:95:ae:8c:24:89:ad:04:57:f8:89:b7:89:d7:51:6e:
         3d:3f:67:41:df:73:0a:3c:d1:d4:87:0e:bb:42:5f:0f
-----BEGIN CERTIFICATE-----
MIIHwzCCA6ugAwIBAgIBDDANBgkqhkiG9w0BAQ0FADB9MQswCQYDVQQGEwJDQTEQ
MA4GA1UECAwHT250YXJpbzEQMA4GA1UEBwwHUnVzc2VsbDEVMBMGA1UECgwMTWls
bGVHcmlsbGVzMRIwEAYDVQQLDAlTaWduYXR1cmUxHzAdBgNVBAMMFmRldjIubWFw
bGUubWR1Z3JlLmluZm8wHhcNMTkwODE0MjA1NzIxWhcNMjEwODA1MjA1NzIxWjBu
MQswCQYDVQQGEwJDQTEQMA4GA1UECAwHT250YXJpbzEQMA4GA1UEBwwHUnVzc2Vs
bDEVMBMGA1UECgwMTWlsbGVHcmlsbGVzMRQwEgYDVQQLDAtNaWxsZUdyaWxsZTEO
MAwGA1UEAwwFdGVzdDEwggIiMA0GCSqGSIb3DQEBAQUAA4ICDwAwggIKAoICAQDt
hkEFdTUx4B8SvM/BHnJU8qPmkVANqPqDDA19G3X38pwD+uMHtcrZDxANwMFzfSx3
8MISkHnrhelzeCI9YuYLP5SY9YWwnMQttI3Q4JGT94utqH1nDR3GNWzpJIQezvyT
dZnEYs6BHHYxvGpPgn0FwsG44ry96uN482KpBkr1x82+pysZmYIC8qmkNPaV0BNN
vwh42qSOXYrdimXsi8CzNm8Wmzoe0jNsAY1ua2Ap6OzOqwz+PSeNeYFrWcr1mcIs
oaKTZPKcEpumt/5YnzdvHNvZEG7eLw7Izrj0R2JGscQ7mOMxVsi6wa0apM4KMgGg
1h2JevAZ24ortbe/OOEGsWSieLSxLZrhDZ5D1SJM6fhDtl0aMvExZ5TrgtfZD49F
s65qAcpwl8kmmjXf8iIgce7LROKxTAZXcqhEi9rt4aVfQOpArO9mLChHjbkbGdhX
lQg0WGgPKOiMvMdTITJ//+Y2bi/+xCIVoM9KL+EuownYbET+CCeXVwUX1kxIzMY7
mng03iaovRj3hWSndqUG3uLHWRnO08jhpDlQ3hc3hspRlS7pgmgutp9QhfGyIFB7
omUSGA6XRDnZH95TCPkzOZovcq8G40qgo3WcOpOanzaA6XAl7/xsTNp2gK0mOB1i
O3zizCN3UYWmDskbGI3PmzR3rbb1AMcKvQK37CLYJwIDAQABo10wWzAdBgNVHQ4E
FgQUL56ZwQtAdw9hgd2sZZ31kXUsG68wHwYDVR0jBBgwFoAUxLqD+Pb1X7rpjl/7
ARpHr7q89+swDAYDVR0TBAUwAwEB/zALBgNVHQ8EBAMCAQYwDQYJKoZIhvcNAQEN
BQADggQBABAP83/zYhNlntc9I9YfO5e1Z1uHAfqvFj4tmtivoT96RrHQrSd576iN
tbPiQ3DxIWOGT+vAvbr5MZdEkGc6BRmnQZD1kizIBqshoxX/1Yxw6oIlWrmhGSw/
QiW/n6Y0r3NAMNfRBwQaeoJslQXPixDSor+6k3kqD7HAGj6fUs6pEVUxiA9/fT56
f30pgVa52W4Ifi8GkWIrXCtWVQ9xluUQt+AzNBauidkZMGdCg8Ct1ahCJ916b2wL
ZO2AOKDWClfbTWnacW852Bq+MqIyuaC8lDRkhtNzkP/EexzW9Hxshop6Oi8/hWR1
MjqatYzAJqrfd3glZ3Lh7J4J+7fGs92K291hYtWa8kMQozr9aeAgxrcXR0dsg5F6
r8eEnOylz88Cdxr/uv5fvJSe7zQcCQZgAoUPeQHJrP2CtG2mj4RgZerIsW+L64r2
3lmbsaw40Ra9EsbxssfZddWCpHCDTcfiQzso7QRaS2voPhSb4zViyxhbnPYfHuhK
4MdowTakJk56deO9EQq4X5dMZO6frMyJFTT2WChvpsPhpOdHSRH/roxHV0SuEmGO
nvILqGpcILb37AoEH5cLF8BFCmBU7A4V4kWLT0ju6qZbxasHj9KnzGO9ruXCAxmp
97XKGqtxp0ow/5n56NyLT5yaY7S+MFZDTRWwE0Goz5Rf5PRYxjwHSplzfKPKEwFF
Z0yNBn46GsiiSDyIhIPZ9LI4GeGN8VayYh6k0GgoS4ZidpC0Fa8piyNnrJmU8Nq2
iB95b4V4RnXNIFedOfI0TXf+FlVdL9wuYxPzEfp2OtCl/vjAgKmTYoMEa9bCYd7K
P8U1C692qw9+8Jl2nmRYa5u5EEa2Vl/bgMNw0SxgJ9CHCtvhQ8jd5CyMC9GLla+C
VYzzeNvrVyeENPBFIpAqqWAMsQsKHhVNi+uCf+1voxFIto+AnCV8G9sKLdpqT2Iz
IervvQkNvfF/TiY7Yu0laE46Ow82vK2MtHADOtkH86TjUBFDDtZTQ8IMPN/hqCp5
1ZEOdWhrA4cq4zHpFuWypSeOYFuElLfVNaDaTDujinAfMFmXGTRnjniguWqUjuPk
zYjvWza8406hBLaE1KOfJ96pq1txQ489qbXODKKOEoo4jrtVEup/vxkNqiEMLrXX
Re47OUMEfbsu+wZ5nWNw29Iv4UZnoYhzirqsnYu//z9x9av3HnA+L/RZg+zkoIWZ
1gaLp2uyY4XuQmDl0h+Y5H7q0GxKOEtKIyfvjN6I3MOMMedChe5Zc0n1dtsJbZEC
ovOIHb9ecOl+20YCWbJb3WzGJtLBP6XiVuT4Qg0bkuD1SQc06eLo+pWujCSJrQRX
+Im3iddRbj0/Z0Hfcwo80dSHDrtCXw8=
-----END CERTIFICATE-----
