Certificate:
    Data:
        Version: 3 (0x2)
        Serial Number: 13 (0xd)
    Signature Algorithm: sha512WithRSAEncryption
        Issuer: C=CA, ST=Ontario, L=Russell, O=MilleGrilles, OU=Signature, CN=dev2.maple.mdugre.info
        Validity
            Not Before: Aug 14 21:32:51 2019 GMT
            Not After : Aug  5 21:32:51 2021 GMT
        Subject: C=CA, ST=Ontario, L=Russell, O=MilleGrilles, OU=MilleGrille, CN=test1
        Subject Public Key Info:
            Public Key Algorithm: rsaEncryption
                Public-Key: (4096 bit)
                Modulus:
                    00:b3:47:2f:a2:f5:5e:67:13:31:3a:a4:6e:f7:6a:
                    2c:61:0c:93:b5:14:00:3a:2d:89:0f:64:0a:55:37:
                    86:6b:e7:bf:24:52:64:0c:a1:d0:80:f6:d1:1b:07:
                    1d:e6:a2:02:3f:42:99:9a:19:4d:ca:49:4f:35:17:
                    7f:10:e1:12:49:82:d4:85:b0:88:61:6a:66:dd:ed:
                    3f:1c:b6:7d:18:13:46:f8:42:53:ad:26:30:c8:b5:
                    6d:92:5f:6d:0f:5d:fc:04:e9:29:0b:d2:ae:f5:52:
                    10:9f:b4:05:e3:4c:ac:97:a3:5e:c3:b7:aa:92:90:
                    01:40:d5:e2:d4:f4:b3:4d:46:cb:76:71:88:70:f4:
                    80:00:ca:39:77:e0:58:d8:00:3d:d3:e9:b2:8c:97:
                    1e:7b:9a:5a:eb:bf:9f:48:26:f1:76:4d:3d:d2:44:
                    84:ab:5d:34:41:6a:49:83:73:f7:43:7c:14:a3:17:
                    4f:31:05:ae:bd:d4:c1:ba:c7:05:2d:5d:1f:09:53:
                    c0:24:c5:2a:1d:89:47:c0:7f:72:bc:a7:89:53:41:
                    cc:cc:c2:23:2d:49:fc:d3:5c:1f:d2:44:f1:75:90:
                    fd:b4:df:11:c7:05:69:bf:ed:5f:2a:59:7c:9b:4a:
                    e8:c9:2e:de:bf:3e:b9:82:84:19:8f:5e:ef:6d:31:
                    84:fb:29:75:07:20:8e:c7:70:ea:e8:f2:c2:f8:d3:
                    26:fb:d8:c6:88:2d:47:26:31:1e:66:5f:ca:a2:5c:
                    b7:4e:b0:d0:41:49:39:c8:62:85:7e:8a:b0:32:bf:
                    34:22:db:44:a7:07:d8:13:65:6c:06:23:3f:af:c4:
                    30:f2:40:31:9f:87:67:0f:8f:06:7e:0a:4b:0a:da:
                    0a:ac:3d:b0:41:26:af:ed:62:41:98:ea:67:d8:de:
                    07:8c:25:a5:dc:f7:b8:c6:4a:17:6a:57:29:5a:0a:
                    37:5c:08:1a:23:97:09:48:2a:d5:ff:9f:fe:9d:07:
                    dc:e1:1f:22:e2:29:7c:a0:e1:87:bf:67:19:01:6c:
                    e0:5a:93:64:41:57:26:69:fa:3d:06:43:53:04:17:
                    8e:72:b4:67:a1:43:97:ea:64:bc:ee:d7:57:9a:d8:
                    6d:0a:cd:dd:e3:d6:6d:9f:ae:7a:5a:6b:96:75:86:
                    2e:9e:c7:cf:05:e8:e5:2e:be:34:6e:9f:ce:e6:1c:
                    47:0f:f6:7a:27:8c:65:74:8c:3e:5c:a3:fd:a4:7c:
                    2b:40:03:04:fd:61:8d:e9:a7:93:af:4e:6e:92:a9:
                    eb:24:19:13:7b:71:22:3f:20:01:ea:43:66:d5:34:
                    2b:e1:0e:7b:54:7b:86:e0:f4:37:57:11:de:8c:3c:
                    83:09:71
                Exponent: 65537 (0x10001)
        X509v3 extensions:
            X509v3 Subject Key Identifier: 
                4C:63:8D:9C:B0:0F:48:6F:1A:A0:78:4E:DD:87:F6:38:94:E8:D5:5E
            X509v3 Authority Key Identifier: 
                keyid:C4:BA:83:F8:F6:F5:5F:BA:E9:8E:5F:FB:01:1A:47:AF:BA:BC:F7:EB

            X509v3 Basic Constraints: 
                CA:TRUE
            X509v3 Key Usage: 
                Certificate Sign, CRL Sign
    Signature Algorithm: sha512WithRSAEncryption
         ac:ba:df:9d:da:45:53:28:f5:01:2b:c5:e9:f4:14:a1:cd:ba:
         6b:08:d1:be:59:9d:0c:8b:b8:82:ed:8f:83:b8:85:6d:dc:6f:
         19:1c:c7:66:19:c5:ac:1a:d7:da:24:77:93:93:4e:8c:49:c8:
         f5:77:52:fa:55:fa:d5:b6:5e:63:d7:d3:10:12:ff:06:a0:62:
         3c:b0:85:99:17:7f:2d:59:59:18:8c:09:96:99:ec:41:fe:99:
         4f:97:e3:f6:04:7a:a8:43:17:1f:5e:03:74:be:ca:ec:e4:87:
         5f:1b:e2:98:af:4e:14:ad:7a:f2:3f:53:25:9f:4d:97:8b:9a:
         c5:dd:60:29:ef:97:74:11:59:b5:0a:8c:74:02:a7:79:1f:4d:
         37:8e:ee:73:1b:d7:99:e0:6f:40:8f:0d:54:a6:ac:f4:4b:58:
         b6:66:f7:fd:0d:62:31:b9:33:68:57:27:f8:b1:02:fb:88:21:
         0a:67:7e:16:20:41:dd:e3:b1:de:25:ae:99:63:18:81:e7:ee:
         29:fe:44:61:0f:04:a6:7d:a4:56:3c:8d:8d:4c:aa:37:1e:5b:
         cb:36:9f:13:8e:a1:44:38:c7:b8:69:b8:58:8b:a0:db:f1:71:
         1c:17:32:60:57:c7:45:8b:83:f8:07:f7:9f:85:62:16:b2:ce:
         52:32:76:5c:4e:45:d3:bf:a0:60:9b:9a:56:39:92:71:8e:02:
         3a:db:d6:dd:d6:45:c3:0a:80:2c:03:a6:3c:16:1f:80:2e:e7:
         1f:2b:64:1f:80:65:16:26:10:57:34:16:dd:03:6f:9c:f1:62:
         da:17:61:f7:3c:7b:e9:1a:aa:2c:09:29:50:0b:d0:f3:ee:6a:
         34:62:3b:ea:7d:f7:7a:49:d9:56:3e:39:a9:d0:95:8d:5a:d9:
         63:9e:36:bd:b6:45:95:11:82:68:fc:62:8d:23:e0:0b:e6:fe:
         8d:47:1f:c1:07:eb:3c:12:e9:0b:dc:a0:77:4a:24:4b:bd:78:
         b3:65:b4:3e:1d:9c:9c:b9:ec:d6:19:89:cb:f2:8a:6b:47:72:
         e0:99:59:52:1a:4d:87:aa:de:1f:50:74:30:44:f2:28:da:05:
         90:28:4b:1b:83:b1:e7:c5:db:50:38:95:2a:1b:d1:f9:2e:c7:
         4a:29:9b:a1:7c:8a:c9:76:34:e2:89:bb:ff:be:f7:0d:90:9b:
         31:19:80:ed:52:17:36:cd:a2:d4:ce:e8:97:3a:4c:16:73:bf:
         03:f0:9b:83:21:96:02:42:7b:70:d8:5f:9e:a9:99:29:9f:fd:
         8b:2c:c6:e8:27:83:df:a9:13:53:48:cb:40:c1:58:43:67:94:
         39:77:92:26:be:fb:f4:b2:c5:5f:f8:72:45:d8:07:95:93:36:
         89:62:b9:54:c7:40:63:41:46:b3:56:20:83:b9:9a:63:53:97:
         9b:bd:50:bf:e0:e9:63:9c:c8:01:92:8c:2f:46:cd:5c:40:fe:
         27:a5:49:e3:12:37:5a:f8:2d:e6:a2:3d:56:24:ac:fa:01:bd:
         c9:e6:33:da:2e:a5:49:e5:05:82:99:dd:35:12:20:3d:16:67:
         4a:ba:f1:0c:bb:b3:b9:37:a3:d6:4d:b1:95:75:ac:86:59:60:
         ff:e0:d8:21:4c:f1:2c:18:2b:75:93:32:51:bf:ba:aa:35:d7:
         fc:69:72:61:be:51:ae:bd:3e:55:94:e8:d4:50:26:12:a6:4e:
         d0:e6:22:81:b1:39:65:ae:bc:fe:a3:de:ea:99:3f:38:22:f7:
         c1:1e:2e:06:59:fc:db:97:43:43:30:57:5c:46:bf:52:48:5d:
         3f:a1:1a:7f:45:9f:9f:6e:a9:84:9c:25:7c:33:a3:a8:29:bb:
         b8:de:85:30:7d:9b:12:25:65:ca:11:b8:f3:e1:d1:9c:85:e6:
         b0:15:20:b3:14:92:5b:6d:c7:8b:26:f5:ec:29:31:40:53:74:
         0a:57:9c:03:99:a4:30:f5:72:d7:1a:ae:e8:81:c0:a2:2c:4d:
         f9:3d:bd:aa:6f:c0:b6:8d:22:7d:93:83:91:d3:8f:78:bd:53:
         5d:b3:bc:19:c2:c0:90:f5:d9:64:93:62:5a:36:7a:08:20:46:
         27:4a:24:19:da:a7:29:df:33:cc:e4:f6:e9:78:34:2c:18:21:
         e0:06:9e:b7:8a:d0:fa:15:ef:f8:fc:a8:12:4a:0e:a0:fc:8b:
         73:45:ef:a3:a7:b0:62:f1:bd:fa:92:aa:e6:09:54:3a:50:c8:
         a2:d6:d0:d6:06:b1:68:e4:ec:e1:9f:04:6d:0c:c1:f0:6b:83:
         e5:9c:3a:40:a8:e9:cf:6e:ef:3c:a8:2c:a7:db:ab:2a:1c:87:
         65:8d:4e:95:4b:8d:b4:b6:0d:f7:9a:b8:a5:7b:56:ec:88:f8:
         05:f3:f2:06:69:d7:82:81:bb:b7:61:f7:82:84:a0:b0:c8:a8:
         95:8a:41:5e:bf:88:a1:80:0e:64:d6:ad:11:1c:57:34:b0:24:
         b9:1c:13:61:9e:ec:03:28:08:6c:58:1b:50:2b:68:73:dc:02:
         3a:be:83:c5:4b:63:79:29:40:38:f8:ce:81:7e:41:8c:30:06:
         06:a1:b9:5f:82:fa:33:14:cb:f4:b8:7f:db:57:8b:40:c3:01:
         17:34:37:54:e0:e0:21:30:85:80:c4:a2:48:b7:8e:af:ce:ba:
         ab:12:c3:4d:40:9b:ef:05:38:66:6f:23:56:61:4d:83
-----BEGIN CERTIFICATE-----
MIIHwzCCA6ugAwIBAgIBDTANBgkqhkiG9w0BAQ0FADB9MQswCQYDVQQGEwJDQTEQ
MA4GA1UECAwHT250YXJpbzEQMA4GA1UEBwwHUnVzc2VsbDEVMBMGA1UECgwMTWls
bGVHcmlsbGVzMRIwEAYDVQQLDAlTaWduYXR1cmUxHzAdBgNVBAMMFmRldjIubWFw
bGUubWR1Z3JlLmluZm8wHhcNMTkwODE0MjEzMjUxWhcNMjEwODA1MjEzMjUxWjBu
MQswCQYDVQQGEwJDQTEQMA4GA1UECAwHT250YXJpbzEQMA4GA1UEBwwHUnVzc2Vs
bDEVMBMGA1UECgwMTWlsbGVHcmlsbGVzMRQwEgYDVQQLDAtNaWxsZUdyaWxsZTEO
MAwGA1UEAwwFdGVzdDEwggIiMA0GCSqGSIb3DQEBAQUAA4ICDwAwggIKAoICAQCz
Ry+i9V5nEzE6pG73aixhDJO1FAA6LYkPZApVN4Zr578kUmQModCA9tEbBx3mogI/
QpmaGU3KSU81F38Q4RJJgtSFsIhhambd7T8ctn0YE0b4QlOtJjDItW2SX20PXfwE
6SkL0q71UhCftAXjTKyXo17Dt6qSkAFA1eLU9LNNRst2cYhw9IAAyjl34FjYAD3T
6bKMlx57mlrrv59IJvF2TT3SRISrXTRBakmDc/dDfBSjF08xBa691MG6xwUtXR8J
U8AkxSodiUfAf3K8p4lTQczMwiMtSfzTXB/SRPF1kP203xHHBWm/7V8qWXybSujJ
Lt6/PrmChBmPXu9tMYT7KXUHII7HcOro8sL40yb72MaILUcmMR5mX8qiXLdOsNBB
STnIYoV+irAyvzQi20SnB9gTZWwGIz+vxDDyQDGfh2cPjwZ+CksK2gqsPbBBJq/t
YkGY6mfY3geMJaXc97jGShdqVylaCjdcCBojlwlIKtX/n/6dB9zhHyLiKXyg4Ye/
ZxkBbOBak2RBVyZp+j0GQ1MEF45ytGehQ5fqZLzu11ea2G0Kzd3j1m2frnpaa5Z1
hi6ex88F6OUuvjRun87mHEcP9nonjGV0jD5co/2kfCtAAwT9YY3pp5OvTm6Sqesk
GRN7cSI/IAHqQ2bVNCvhDntUe4bg9DdXEd6MPIMJcQIDAQABo10wWzAdBgNVHQ4E
FgQUTGONnLAPSG8aoHhO3Yf2OJTo1V4wHwYDVR0jBBgwFoAUxLqD+Pb1X7rpjl/7
ARpHr7q89+swDAYDVR0TBAUwAwEB/zALBgNVHQ8EBAMCAQYwDQYJKoZIhvcNAQEN
BQADggQBAKy6353aRVMo9QErxen0FKHNumsI0b5ZnQyLuILtj4O4hW3cbxkcx2YZ
xawa19okd5OTToxJyPV3UvpV+tW2XmPX0xAS/wagYjywhZkXfy1ZWRiMCZaZ7EH+
mU+X4/YEeqhDFx9eA3S+yuzkh18b4pivThStevI/UyWfTZeLmsXdYCnvl3QRWbUK
jHQCp3kfTTeO7nMb15ngb0CPDVSmrPRLWLZm9/0NYjG5M2hXJ/ixAvuIIQpnfhYg
Qd3jsd4lrpljGIHn7in+RGEPBKZ9pFY8jY1MqjceW8s2nxOOoUQ4x7hpuFiLoNvx
cRwXMmBXx0WLg/gH95+FYhayzlIydlxORdO/oGCbmlY5knGOAjrb1t3WRcMKgCwD
pjwWH4Au5x8rZB+AZRYmEFc0Ft0Db5zxYtoXYfc8e+kaqiwJKVAL0PPuajRiO+p9
93pJ2VY+OanQlY1a2WOeNr22RZURgmj8Yo0j4Avm/o1HH8EH6zwS6QvcoHdKJEu9
eLNltD4dnJy57NYZicvyimtHcuCZWVIaTYeq3h9QdDBE8ijaBZAoSxuDsefF21A4
lSob0fkux0opm6F8isl2NOKJu/++9w2QmzEZgO1SFzbNotTO6Jc6TBZzvwPwm4Mh
lgJCe3DYX56pmSmf/Yssxugng9+pE1NIy0DBWENnlDl3kia++/SyxV/4ckXYB5WT
NoliuVTHQGNBRrNWIIO5mmNTl5u9UL/g6WOcyAGSjC9GzVxA/ielSeMSN1r4Leai
PVYkrPoBvcnmM9oupUnlBYKZ3TUSID0WZ0q68Qy7s7k3o9ZNsZV1rIZZYP/g2CFM
8SwYK3WTMlG/uqo11/xpcmG+Ua69PlWU6NRQJhKmTtDmIoGxOWWuvP6j3uqZPzgi
98EeLgZZ/NuXQ0MwV1xGv1JIXT+hGn9Fn59uqYScJXwzo6gpu7jehTB9mxIlZcoR
uPPh0ZyF5rAVILMUklttx4sm9ewpMUBTdApXnAOZpDD1ctcaruiBwKIsTfk9vapv
wLaNIn2Tg5HTj3i9U12zvBnCwJD12WSTYlo2egggRidKJBnapynfM8zk9ul4NCwY
IeAGnreK0PoV7/j8qBJKDqD8i3NF76OnsGLxvfqSquYJVDpQyKLW0NYGsWjk7OGf
BG0MwfBrg+WcOkCo6c9u7zyoLKfbqyoch2WNTpVLjbS2DfeauKV7VuyI+AXz8gZp
14KBu7dh94KEoLDIqJWKQV6/iKGADmTWrREcVzSwJLkcE2Ge7AMoCGxYG1AraHPc
Ajq+g8VLY3kpQDj4zoF+QYwwBgahuV+C+jMUy/S4f9tXi0DDARc0N1Tg4CEwhYDE
oki3jq/OuqsSw01Am+8FOGZvI1ZhTYM=
-----END CERTIFICATE-----
