Certificate:
    Data:
        Version: 3 (0x2)
        Serial Number: 14 (0xe)
    Signature Algorithm: sha512WithRSAEncryption
        Issuer: C=CA, ST=Ontario, L=Russell, O=MilleGrilles, OU=Signature, CN=dev2.maple.mdugre.info
        Validity
            Not Before: Aug 14 21:39:51 2019 GMT
            Not After : Aug  5 21:39:51 2021 GMT
        Subject: C=CA, ST=Ontario, L=Russell, O=MilleGrilles, OU=MilleGrille, CN=maple
        Subject Public Key Info:
            Public Key Algorithm: rsaEncryption
                Public-Key: (4096 bit)
                Modulus:
                    00:a5:75:84:a8:6a:0a:15:75:4a:7d:bf:f4:a4:af:
                    ec:dc:fb:d4:d8:aa:e3:b7:28:e7:46:34:ab:41:3f:
                    f0:c2:c9:91:65:71:bd:3f:87:ec:1e:e2:14:9c:75:
                    61:d0:10:b8:18:d0:84:a5:71:a1:3f:43:b9:62:35:
                    56:9b:d5:f0:eb:d0:a4:b2:39:2b:6a:ad:58:f3:07:
                    1e:ec:3e:7a:be:9f:df:4d:1b:87:ae:b3:33:ba:87:
                    64:88:e6:e4:16:d1:31:b1:27:61:fd:17:3e:0a:b8:
                    49:82:cc:ec:af:f6:0f:59:64:d2:e0:92:a5:16:14:
                    e8:b7:e2:1c:0a:bb:da:53:8e:8d:cb:bb:cc:60:42:
                    85:21:93:3f:5a:7a:92:1e:85:c6:09:49:5f:2b:3f:
                    43:bd:f6:42:a8:78:51:bd:55:61:c0:37:42:93:d7:
                    22:a8:52:11:8f:d6:6f:74:a2:76:87:8c:59:ed:62:
                    ef:27:44:54:8a:d1:c5:ac:b1:8e:ab:e6:bd:90:0a:
                    e0:f3:b0:2a:c3:fc:ff:d3:44:b5:77:ff:d9:5f:a0:
                    b4:6a:19:ed:26:f8:30:16:e3:f5:bd:8d:3f:48:fd:
                    03:60:8a:d7:d9:ba:59:c4:88:25:5c:17:26:91:39:
                    59:78:d4:81:c9:c8:7e:69:93:78:32:3d:9a:15:47:
                    73:a8:be:d4:62:4f:8e:6b:f9:e1:00:04:92:e9:fa:
                    a3:d6:cd:f8:4b:02:36:23:c9:0d:cb:0f:36:df:8a:
                    63:eb:9f:74:8b:ce:ae:22:5d:31:2b:94:e0:b6:e3:
                    37:46:da:9a:bb:5c:68:9c:44:d2:5d:da:00:90:21:
                    43:39:d0:3f:b1:2f:ae:18:7d:91:ea:ca:70:c2:36:
                    b4:87:19:88:8d:50:25:e3:cd:55:f9:33:2e:c4:26:
                    57:3f:2c:92:e1:e1:7e:bf:89:10:b5:5b:86:d6:4f:
                    24:e4:3b:38:25:fc:78:e6:d5:e4:91:67:f6:75:fe:
                    26:1c:b0:87:ea:10:6b:b2:89:3e:37:2c:4c:0e:a1:
                    66:3e:e2:59:4d:74:e6:bc:bf:33:a6:a0:5e:c1:ee:
                    a9:0f:ab:7c:48:0f:97:ff:4b:1a:1a:7b:55:12:4b:
                    ad:7e:2a:a6:b9:96:ce:3d:b0:7e:21:83:f9:c4:97:
                    32:25:88:45:4b:fd:f5:bb:3a:7b:35:75:3c:63:52:
                    7f:48:36:51:50:17:0e:f6:73:b9:fb:94:b6:49:fb:
                    6f:b1:fa:19:e0:18:36:f0:60:65:49:88:36:33:cd:
                    bb:34:85:44:da:d1:84:1c:01:cf:cf:ee:13:5f:19:
                    28:a3:ac:3e:52:19:0e:53:4f:d8:59:51:9a:c8:e0:
                    31:a2:c3
                Exponent: 65537 (0x10001)
        X509v3 extensions:
            X509v3 Subject Key Identifier: 
                23:31:46:58:99:85:96:6D:AA:B5:68:38:CB:8B:8F:86:29:83:86:90
            X509v3 Authority Key Identifier: 
                keyid:C4:BA:83:F8:F6:F5:5F:BA:E9:8E:5F:FB:01:1A:47:AF:BA:BC:F7:EB

            X509v3 Basic Constraints: 
                CA:TRUE
            X509v3 Key Usage: 
                Certificate Sign, CRL Sign
    Signature Algorithm: sha512WithRSAEncryption
         80:28:28:be:02:5d:2d:a3:fc:3b:0f:61:e2:97:2b:c5:82:73:
         35:ad:2a:93:f6:2c:da:60:1b:03:cc:0d:17:a2:d5:8d:79:37:
         a9:74:90:d4:72:4e:86:4a:b2:ce:58:c9:81:15:4c:54:bc:1d:
         74:ed:ae:f4:67:74:e7:91:1d:67:71:c4:f7:e7:09:5e:7e:3c:
         18:40:e8:28:b1:05:da:3f:2a:4a:3a:2f:e2:53:8a:5f:64:70:
         b7:a7:45:45:d1:e9:76:61:90:48:9d:77:27:52:18:28:08:26:
         aa:77:d1:4d:c0:06:e4:91:b6:ba:c1:bc:24:ff:7c:00:07:47:
         0d:a7:c9:3f:34:d9:90:ba:a3:51:39:c1:c7:56:76:17:75:30:
         be:02:f3:f1:0b:74:2d:7f:0d:ef:52:78:62:11:ee:19:64:6c:
         d1:81:79:de:72:d5:af:06:b3:56:06:3d:5c:be:50:71:9e:51:
         f8:ee:78:11:22:da:b6:76:3c:6b:41:7a:86:00:f3:26:d9:b4:
         6e:2b:a5:8e:99:49:17:c0:81:28:d4:0d:74:ed:a8:7e:e3:1d:
         54:50:2e:4c:f2:f6:7c:76:b2:da:6f:45:d6:04:56:69:e7:4f:
         a3:5a:9f:e4:84:3f:af:2b:79:12:2f:e8:21:d1:3a:cc:12:0f:
         d0:da:44:f0:3e:db:98:b3:07:4e:37:07:a6:8f:5d:d7:4b:e1:
         a8:38:98:dc:6c:99:1b:59:df:b2:6f:dc:1e:7d:5e:38:22:9e:
         0b:40:91:4f:a5:89:98:11:4d:76:68:d8:2d:6d:ed:19:87:09:
         ac:1c:79:d5:72:18:99:4c:85:a6:ff:8b:13:f0:c7:00:f4:53:
         e5:8c:33:c7:05:b5:e0:01:00:3a:aa:89:e8:4b:18:21:89:bb:
         6d:24:df:da:db:29:94:f1:04:2a:8f:98:c7:f0:ea:ce:93:75:
         7f:21:1c:a5:3b:ea:60:77:73:19:c0:86:fe:3f:77:6c:42:ae:
         8e:11:c8:32:9e:f5:41:80:4f:a9:af:5f:01:fa:92:a0:2a:00:
         66:14:aa:89:b5:cf:f5:57:99:70:da:58:4c:f8:ba:7d:db:d7:
         16:7d:d6:d3:a5:2b:f2:ec:ff:33:35:8a:47:13:ad:40:0e:93:
         22:04:b7:6c:27:cc:50:a3:89:81:ab:0e:cc:70:a2:a1:54:86:
         5c:d4:dd:6a:68:b5:71:75:cd:e3:78:e6:09:fe:0e:77:08:29:
         ca:df:fb:8b:f3:fb:76:3e:38:f8:cf:3f:8c:ec:04:92:ee:61:
         70:fd:63:4c:be:05:a4:96:28:de:ae:7d:37:66:ff:f4:81:09:
         e1:07:7e:b3:1f:1d:c7:b9:91:26:f4:fb:40:13:76:bd:a5:df:
         e4:ab:70:43:19:ef:6d:d6:b6:c8:6b:6c:10:da:2d:31:f9:72:
         1b:bb:3d:e9:f1:2d:23:ac:0f:5a:83:8b:ee:87:9b:10:a2:a3:
         29:e0:6e:1f:04:5a:7b:4c:a9:00:36:17:19:5b:cb:aa:e4:f6:
         3f:5b:5f:7f:41:89:cb:91:4e:b9:19:d9:88:e0:36:85:c6:7c:
         c8:50:e5:ee:9a:28:f8:ef:a5:de:48:ee:47:8f:2b:43:80:4d:
         8b:22:7e:7f:c8:dc:6e:19:6d:75:15:65:b2:a5:a3:50:6e:f4:
         88:53:e0:37:4c:e0:69:38:3a:07:9e:96:87:e4:b6:4a:f1:b4:
         3b:07:e4:38:7a:eb:58:e9:5c:d5:9a:f3:68:dc:8d:ad:c2:a7:
         54:0d:82:59:4e:87:1b:53:c4:ab:23:56:0e:23:7b:cd:c8:17:
         a2:ed:d3:bd:cd:87:9c:c1:7c:34:57:76:70:73:25:05:01:66:
         5a:ae:b2:25:82:10:e9:92:00:03:ee:64:41:9c:5e:ff:9b:44:
         de:b3:a6:0d:10:59:8d:ea:a7:05:b5:a8:b2:65:1d:6c:95:0a:
         63:57:a8:57:c3:f3:95:46:fb:12:17:f4:53:39:c2:2b:8f:d5:
         44:02:a0:b8:9c:62:52:03:f7:6d:9f:79:5b:c0:95:df:41:16:
         23:75:d0:9c:72:c1:5e:cf:6d:0a:1f:61:4d:eb:33:81:18:31:
         aa:84:14:f0:74:4a:61:f9:90:79:7f:24:33:8b:67:e8:c1:0a:
         1d:08:7c:d4:71:54:b3:6a:b2:84:cb:79:dc:ca:75:04:6a:3b:
         21:87:7a:ea:86:7c:0e:47:8b:1c:8b:06:58:9c:48:3a:ee:04:
         67:93:6e:d2:2a:d0:f2:29:05:70:35:99:b0:c7:41:a3:41:1c:
         26:6f:1f:28:11:09:82:75:90:01:3c:f7:b6:d2:f9:8c:43:60:
         18:12:36:e6:1c:7d:f4:fd:48:dc:0c:c0:01:67:bb:1b:b8:01:
         25:74:17:3d:d3:4e:fb:ad:97:1e:c9:f0:f4:89:98:d7:23:1f:
         a2:f7:23:f7:c3:85:99:f2:cc:c3:46:58:4d:64:eb:1a:96:1a:
         1f:0a:36:99:09:10:1e:a1:6c:fb:68:d5:65:cd:af:53:09:a5:
         2c:c6:2e:45:04:18:cb:59:c1:ae:5f:ef:70:de:b4:70:9b:10:
         e7:15:cf:72:81:d0:2a:58:02:01:ec:01:98:2a:3a:a6:b8:c2:
         5f:d2:44:65:9f:d2:26:da:93:46:5e:4b:71:68:85:0f:12:30:
         b0:21:e0:db:23:00:1c:f4:95:6e:b0:9c:f6:1e:7c:cb
-----BEGIN CERTIFICATE-----
MIIHwzCCA6ugAwIBAgIBDjANBgkqhkiG9w0BAQ0FADB9MQswCQYDVQQGEwJDQTEQ
MA4GA1UECAwHT250YXJpbzEQMA4GA1UEBwwHUnVzc2VsbDEVMBMGA1UECgwMTWls
bGVHcmlsbGVzMRIwEAYDVQQLDAlTaWduYXR1cmUxHzAdBgNVBAMMFmRldjIubWFw
bGUubWR1Z3JlLmluZm8wHhcNMTkwODE0MjEzOTUxWhcNMjEwODA1MjEzOTUxWjBu
MQswCQYDVQQGEwJDQTEQMA4GA1UECAwHT250YXJpbzEQMA4GA1UEBwwHUnVzc2Vs
bDEVMBMGA1UECgwMTWlsbGVHcmlsbGVzMRQwEgYDVQQLDAtNaWxsZUdyaWxsZTEO
MAwGA1UEAwwFbWFwbGUwggIiMA0GCSqGSIb3DQEBAQUAA4ICDwAwggIKAoICAQCl
dYSoagoVdUp9v/Skr+zc+9TYquO3KOdGNKtBP/DCyZFlcb0/h+we4hScdWHQELgY
0ISlcaE/Q7liNVab1fDr0KSyOStqrVjzBx7sPnq+n99NG4euszO6h2SI5uQW0TGx
J2H9Fz4KuEmCzOyv9g9ZZNLgkqUWFOi34hwKu9pTjo3Lu8xgQoUhkz9aepIehcYJ
SV8rP0O99kKoeFG9VWHAN0KT1yKoUhGP1m90onaHjFntYu8nRFSK0cWssY6r5r2Q
CuDzsCrD/P/TRLV3/9lfoLRqGe0m+DAW4/W9jT9I/QNgitfZulnEiCVcFyaROVl4
1IHJyH5pk3gyPZoVR3OovtRiT45r+eEABJLp+qPWzfhLAjYjyQ3LDzbfimPrn3SL
zq4iXTErlOC24zdG2pq7XGicRNJd2gCQIUM50D+xL64YfZHqynDCNrSHGYiNUCXj
zVX5My7EJlc/LJLh4X6/iRC1W4bWTyTkOzgl/Hjm1eSRZ/Z1/iYcsIfqEGuyiT43
LEwOoWY+4llNdOa8vzOmoF7B7qkPq3xID5f/Sxoae1USS61+Kqa5ls49sH4hg/nE
lzIliEVL/fW7Ons1dTxjUn9INlFQFw72c7n7lLZJ+2+x+hngGDbwYGVJiDYzzbs0
hUTa0YQcAc/P7hNfGSijrD5SGQ5TT9hZUZrI4DGiwwIDAQABo10wWzAdBgNVHQ4E
FgQUIzFGWJmFlm2qtWg4y4uPhimDhpAwHwYDVR0jBBgwFoAUxLqD+Pb1X7rpjl/7
ARpHr7q89+swDAYDVR0TBAUwAwEB/zALBgNVHQ8EBAMCAQYwDQYJKoZIhvcNAQEN
BQADggQBAIAoKL4CXS2j/DsPYeKXK8WCczWtKpP2LNpgGwPMDRei1Y15N6l0kNRy
ToZKss5YyYEVTFS8HXTtrvRndOeRHWdxxPfnCV5+PBhA6CixBdo/Kko6L+JTil9k
cLenRUXR6XZhkEiddydSGCgIJqp30U3ABuSRtrrBvCT/fAAHRw2nyT802ZC6o1E5
wcdWdhd1ML4C8/ELdC1/De9SeGIR7hlkbNGBed5y1a8Gs1YGPVy+UHGeUfjueBEi
2rZ2PGtBeoYA8ybZtG4rpY6ZSRfAgSjUDXTtqH7jHVRQLkzy9nx2stpvRdYEVmnn
T6Nan+SEP68reRIv6CHROswSD9DaRPA+25izB043B6aPXddL4ag4mNxsmRtZ37Jv
3B59XjgingtAkU+liZgRTXZo2C1t7RmHCawcedVyGJlMhab/ixPwxwD0U+WMM8cF
teABADqqiehLGCGJu20k39rbKZTxBCqPmMfw6s6TdX8hHKU76mB3cxnAhv4/d2xC
ro4RyDKe9UGAT6mvXwH6kqAqAGYUqom1z/VXmXDaWEz4un3b1xZ91tOlK/Ls/zM1
ikcTrUAOkyIEt2wnzFCjiYGrDsxwoqFUhlzU3WpotXF1zeN45gn+DncIKcrf+4vz
+3Y+OPjPP4zsBJLuYXD9Y0y+BaSWKN6ufTdm//SBCeEHfrMfHce5kSb0+0ATdr2l
3+SrcEMZ723WtshrbBDaLTH5chu7PenxLSOsD1qDi+6HmxCioyngbh8EWntMqQA2
Fxlby6rk9j9bX39BicuRTrkZ2YjgNoXGfMhQ5e6aKPjvpd5I7kePK0OATYsifn/I
3G4ZbXUVZbKlo1Bu9IhT4DdM4Gk4OgeelofktkrxtDsH5Dh661jpXNWa82jcja3C
p1QNgllOhxtTxKsjVg4je83IF6Lt073Nh5zBfDRXdnBzJQUBZlqusiWCEOmSAAPu
ZEGcXv+bRN6zpg0QWY3qpwW1qLJlHWyVCmNXqFfD85VG+xIX9FM5wiuP1UQCoLic
YlID922feVvAld9BFiN10JxywV7PbQofYU3rM4EYMaqEFPB0SmH5kHl/JDOLZ+jB
Ch0IfNRxVLNqsoTLedzKdQRqOyGHeuqGfA5HixyLBlicSDruBGeTbtIq0PIpBXA1
mbDHQaNBHCZvHygRCYJ1kAE897bS+YxDYBgSNuYcffT9SNwMwAFnuxu4ASV0Fz3T
Tvutlx7J8PSJmNcjH6L3I/fDhZnyzMNGWE1k6xqWGh8KNpkJEB6hbPto1WXNr1MJ
pSzGLkUEGMtZwa5f73DetHCbEOcVz3KB0CpYAgHsAZgqOqa4wl/SRGWf0ibak0Ze
S3FohQ8SMLAh4NsjABz0lW6wnPYefMs=
-----END CERTIFICATE-----
