Certificate:
    Data:
        Version: 3 (0x2)
        Serial Number: 15 (0xf)
    Signature Algorithm: sha512WithRSAEncryption
        Issuer: C=CA, ST=Ontario, L=Russell, O=MilleGrilles, OU=Signature, CN=dev2.maple.mdugre.info
        Validity
            Not Before: Aug 14 22:58:31 2019 GMT
            Not After : Aug  5 22:58:31 2021 GMT
        Subject: C=CA, ST=Ontario, L=Russell, O=MilleGrilles, OU=MilleGrille, CN=test1
        Subject Public Key Info:
            Public Key Algorithm: rsaEncryption
                Public-Key: (4096 bit)
                Modulus:
                    00:bb:e0:2a:e0:91:36:fc:b2:87:0b:08:67:d2:d8:
                    7c:3a:ea:2a:3f:ba:ef:fb:e3:1f:34:cb:71:9c:cd:
                    55:e5:d6:45:8f:7d:56:9d:95:bb:19:ca:18:b7:4a:
                    8f:89:8e:61:ae:68:b4:37:d2:1c:85:b9:f0:1f:93:
                    2b:7a:17:72:0b:27:be:35:45:e4:20:7f:52:0d:80:
                    5a:e7:c0:6f:88:d2:37:2e:b8:72:df:94:4d:d1:69:
                    d2:a6:8a:c0:10:83:fb:76:3b:a9:31:d0:74:33:bb:
                    2e:e6:ba:13:fb:a1:94:d3:6d:31:74:a7:08:1c:a5:
                    29:59:d9:d0:98:37:42:d1:53:11:b8:87:4b:90:4d:
                    f0:fc:76:2c:e5:48:b3:75:c6:25:c8:f6:3b:50:d8:
                    78:54:75:f5:d9:7b:b3:c7:42:a8:ca:94:ef:92:cd:
                    c6:d6:2c:7d:77:27:88:3c:f8:b9:10:55:2b:27:30:
                    1b:90:16:2b:a6:78:13:ea:69:8c:9a:08:f5:f5:45:
                    5f:36:2c:0b:55:98:8e:1f:71:78:1d:8e:02:a9:87:
                    c2:92:2f:5c:86:e9:fc:23:ec:18:73:39:a9:2a:86:
                    f2:3e:5f:f5:ff:46:e9:55:7a:38:8e:39:b3:fc:47:
                    0b:37:f5:b7:4d:cf:33:cb:2c:50:24:1e:f4:3a:e2:
                    a2:fd:32:dd:78:ca:d5:99:f0:e9:dc:f9:ea:11:db:
                    51:b8:5d:52:ac:e0:57:0e:e2:9c:76:44:8d:0e:28:
                    67:8c:a3:00:8c:da:66:d7:f8:fb:2c:d5:2b:0c:b3:
                    c0:c6:94:df:6e:15:2a:1f:67:b2:8e:aa:6e:8e:6b:
                    03:53:b3:3d:f7:1e:1b:cc:a9:39:20:6d:63:50:10:
                    8e:d4:fa:05:3c:12:40:1d:5a:fa:50:6f:96:06:b2:
                    bf:06:54:1d:f3:dd:fd:ed:05:5c:77:4e:de:3b:b1:
                    1e:12:c1:90:43:1b:50:31:00:8d:83:cc:27:a5:cf:
                    f5:61:ff:8c:56:a1:fd:d9:8b:ae:a1:c9:dc:6e:0b:
                    ba:4d:d2:00:b2:b4:5a:ec:76:47:e0:2c:8f:ea:01:
                    df:98:6e:a2:54:1a:55:85:50:4b:6c:e4:b3:04:ef:
                    a3:08:a8:d5:5b:00:f4:ea:37:f4:5c:d3:c2:e4:ba:
                    f7:18:8d:93:06:c4:83:d1:d0:ed:20:81:9d:ff:23:
                    58:b6:07:05:b3:c6:a1:c0:a8:41:70:11:fb:e7:90:
                    de:76:19:a7:4c:99:9e:14:7a:66:b2:05:90:c7:b3:
                    de:54:33:90:16:be:33:fd:29:b4:a5:8a:56:17:73:
                    3a:cf:43:bc:a1:54:a5:11:b7:f2:ea:db:8d:5f:64:
                    bb:11:a5
                Exponent: 65537 (0x10001)
        X509v3 extensions:
            X509v3 Subject Key Identifier: 
                79:82:92:EE:33:A9:CC:64:15:E4:D3:19:19:FC:2E:B6:63:56:5E:77
            X509v3 Authority Key Identifier: 
                keyid:C4:BA:83:F8:F6:F5:5F:BA:E9:8E:5F:FB:01:1A:47:AF:BA:BC:F7:EB

            X509v3 Basic Constraints: 
                CA:TRUE
            X509v3 Key Usage: 
                Certificate Sign, CRL Sign
    Signature Algorithm: sha512WithRSAEncryption
         5e:0d:79:da:d4:6d:2c:eb:b6:19:28:1a:2a:9a:35:83:6e:0d:
         df:bc:5e:90:5f:77:2d:c6:a4:e2:c3:8a:53:a9:6f:3c:20:b9:
         46:a3:1d:d6:98:40:88:d2:34:c9:69:8a:86:7b:3b:2f:87:b2:
         2c:9a:91:e8:7c:e9:da:d6:da:fe:0b:e2:88:aa:77:48:87:bc:
         2c:93:2f:93:02:71:60:fb:f0:06:0a:0d:51:32:d5:33:03:08:
         85:3a:2d:bd:bd:26:6a:a9:74:5f:05:3a:ad:f3:88:7f:65:0b:
         50:10:7f:40:96:28:5a:c1:d2:fb:b2:85:aa:00:bf:1f:79:75:
         ac:ba:82:78:73:bf:54:ba:80:4e:09:40:1b:42:65:28:31:8a:
         1e:f6:ca:57:3c:35:86:d9:88:72:b2:9d:fd:33:53:c6:2c:c5:
         03:d4:bb:00:c6:56:96:34:26:ed:73:51:84:ce:41:54:9d:a9:
         ab:21:b3:26:41:a7:5e:18:a1:5c:ea:95:ef:f8:e0:f6:5c:d3:
         03:da:30:1d:2b:05:4b:fb:dd:ba:f9:68:f5:f8:f3:e3:2d:e1:
         fd:29:a4:cd:25:dc:90:d3:03:22:17:49:a4:f8:b5:5a:8b:30:
         e2:b7:a4:71:2d:37:13:17:ed:23:51:bb:47:d5:b5:df:1a:b4:
         3d:58:14:31:f8:2d:a7:7b:3e:7c:99:63:eb:d3:e3:66:29:cb:
         f4:84:f3:63:5e:fa:01:c8:b1:21:98:93:80:fa:88:24:b4:df:
         b2:75:a1:b3:64:9a:c4:ce:12:8d:2e:73:8c:f2:34:9e:d5:88:
         31:98:77:0a:f1:2a:f4:8d:be:1b:e0:d1:d3:63:46:ff:6c:02:
         74:bf:bf:c2:c4:5c:6f:86:42:2a:d7:37:57:45:9f:08:b2:f2:
         c4:8f:c3:61:b2:5e:6b:9c:4c:c2:93:9a:ff:8b:f7:d5:4f:62:
         1b:92:f2:c0:6a:4c:22:56:8c:30:93:95:71:2a:e8:47:92:37:
         1d:f3:56:7e:c4:11:54:7d:9e:39:c4:06:0f:cd:61:a3:9d:4c:
         25:52:96:f2:07:08:94:38:10:14:46:98:76:f3:4c:41:30:25:
         a2:cb:2e:20:f1:89:57:d3:f3:1a:3e:0e:5f:68:4b:52:fa:d3:
         55:a1:73:59:1b:75:56:cd:dc:b3:d5:e0:45:f4:59:36:bd:ed:
         1b:af:7f:78:49:34:9c:37:4c:c9:63:8d:ab:94:8f:93:fd:eb:
         c8:b7:2c:a3:d9:82:f0:95:c6:43:92:12:61:ca:b9:08:bc:f2:
         f4:2e:30:4c:5e:10:bc:6f:96:f1:67:71:36:ad:33:f1:3e:df:
         d2:6c:2b:f7:8f:1e:ed:ef:4f:93:80:0c:c3:8a:3c:71:49:c6:
         31:a7:14:90:84:38:92:b0:94:8f:f1:3a:a8:15:bf:b4:0c:2d:
         8d:5d:94:60:45:9f:e1:70:8c:b1:8c:8b:e5:94:7a:31:da:bd:
         a9:91:db:e6:ac:9e:a5:99:7e:29:7f:73:cc:f2:82:31:34:8d:
         35:5f:b3:f2:38:d2:4f:08:f0:b1:6c:a3:69:6f:4b:9a:77:c5:
         72:66:ff:ff:85:32:65:ca:d3:a5:1d:5d:7a:5f:0c:85:a4:64:
         75:98:f7:18:37:fa:68:f4:ed:7f:dc:1f:bd:e8:2b:83:81:b0:
         cd:3d:9b:72:dd:17:f5:45:82:e2:c8:28:47:59:c3:1e:ac:b3:
         86:fb:df:b6:27:e9:48:bb:0f:5e:51:64:e5:67:bc:06:c8:fe:
         84:37:5b:a7:6c:b2:66:42:77:f1:1e:73:56:b6:87:c7:a5:3f:
         96:2c:b4:2f:94:36:e6:1b:98:37:28:c2:62:a6:41:dc:df:f7:
         48:3a:22:ec:e3:13:1a:87:cf:b3:f9:4f:1a:3a:51:42:e5:75:
         46:c5:bb:50:6a:cb:dc:8a:4e:03:c4:c4:4c:60:f1:86:70:75:
         67:ab:14:6a:65:15:b0:54:ef:28:8f:0f:b6:80:bd:23:e1:62:
         7e:06:c8:ee:ab:bc:52:d8:a0:df:93:13:a0:30:fc:e6:38:94:
         21:75:cd:91:21:8a:4d:e5:b7:bc:49:3d:cd:6f:b6:83:8b:1e:
         96:7e:69:42:c4:01:c2:9d:87:3e:fa:e5:7e:0f:d2:23:5e:49:
         fa:b1:dd:11:18:42:46:ed:57:ec:d1:5c:d3:b0:06:28:8e:a7:
         51:70:93:23:ff:69:e4:d8:b4:ed:1c:26:c9:e6:f4:a6:60:47:
         1c:b5:9f:9a:70:e2:76:d7:3b:68:79:ab:86:56:48:97:13:63:
         32:27:cf:44:49:1d:b0:cf:aa:be:8d:2b:3f:53:21:a9:c6:5b:
         7c:8e:8a:ce:97:aa:0c:60:41:5f:4c:9b:68:73:3d:17:41:f7:
         27:3b:1b:79:45:37:45:ad:4b:0c:5b:4d:c6:93:af:ea:48:e6:
         cd:18:ec:cf:2c:19:4e:00:87:74:9a:ca:ab:51:72:ef:dc:17:
         03:80:74:68:30:d4:a4:23:84:ab:46:98:94:4b:6d:b3:92:8b:
         68:d4:bc:e8:ca:25:cf:69:4d:67:32:52:f7:fb:eb:29:59:ca:
         98:84:0d:a1:51:27:06:a7:3c:e9:88:45:c1:61:56:f4:f2:40:
         f8:61:2c:1f:70:7b:62:bc:6e:9d:fa:90:1f:65:26:14:af:f0:
         7f:c6:ea:ab:f7:99:14:bb:dd:2b:7c:07:b8:73:c8:68
-----BEGIN CERTIFICATE-----
MIIHwzCCA6ugAwIBAgIBDzANBgkqhkiG9w0BAQ0FADB9MQswCQYDVQQGEwJDQTEQ
MA4GA1UECAwHT250YXJpbzEQMA4GA1UEBwwHUnVzc2VsbDEVMBMGA1UECgwMTWls
bGVHcmlsbGVzMRIwEAYDVQQLDAlTaWduYXR1cmUxHzAdBgNVBAMMFmRldjIubWFw
bGUubWR1Z3JlLmluZm8wHhcNMTkwODE0MjI1ODMxWhcNMjEwODA1MjI1ODMxWjBu
MQswCQYDVQQGEwJDQTEQMA4GA1UECAwHT250YXJpbzEQMA4GA1UEBwwHUnVzc2Vs
bDEVMBMGA1UECgwMTWlsbGVHcmlsbGVzMRQwEgYDVQQLDAtNaWxsZUdyaWxsZTEO
MAwGA1UEAwwFdGVzdDEwggIiMA0GCSqGSIb3DQEBAQUAA4ICDwAwggIKAoICAQC7
4CrgkTb8socLCGfS2Hw66io/uu/74x80y3GczVXl1kWPfVadlbsZyhi3So+JjmGu
aLQ30hyFufAfkyt6F3ILJ741ReQgf1INgFrnwG+I0jcuuHLflE3RadKmisAQg/t2
O6kx0HQzuy7muhP7oZTTbTF0pwgcpSlZ2dCYN0LRUxG4h0uQTfD8dizlSLN1xiXI
9jtQ2HhUdfXZe7PHQqjKlO+SzcbWLH13J4g8+LkQVSsnMBuQFiumeBPqaYyaCPX1
RV82LAtVmI4fcXgdjgKph8KSL1yG6fwj7BhzOakqhvI+X/X/RulVejiOObP8Rws3
9bdNzzPLLFAkHvQ64qL9Mt14ytWZ8Onc+eoR21G4XVKs4FcO4px2RI0OKGeMowCM
2mbX+Pss1SsMs8DGlN9uFSofZ7KOqm6OawNTsz33HhvMqTkgbWNQEI7U+gU8EkAd
WvpQb5YGsr8GVB3z3f3tBVx3Tt47sR4SwZBDG1AxAI2DzCelz/Vh/4xWof3Zi66h
ydxuC7pN0gCytFrsdkfgLI/qAd+YbqJUGlWFUEts5LME76MIqNVbAPTqN/Rc08Lk
uvcYjZMGxIPR0O0ggZ3/I1i2BwWzxqHAqEFwEfvnkN52GadMmZ4UemayBZDHs95U
M5AWvjP9KbSlilYXczrPQ7yhVKURt/Lq241fZLsRpQIDAQABo10wWzAdBgNVHQ4E
FgQUeYKS7jOpzGQV5NMZGfwutmNWXncwHwYDVR0jBBgwFoAUxLqD+Pb1X7rpjl/7
ARpHr7q89+swDAYDVR0TBAUwAwEB/zALBgNVHQ8EBAMCAQYwDQYJKoZIhvcNAQEN
BQADggQBAF4NedrUbSzrthkoGiqaNYNuDd+8XpBfdy3GpOLDilOpbzwguUajHdaY
QIjSNMlpioZ7Oy+Hsiyakeh86drW2v4L4oiqd0iHvCyTL5MCcWD78AYKDVEy1TMD
CIU6Lb29JmqpdF8FOq3ziH9lC1AQf0CWKFrB0vuyhaoAvx95day6gnhzv1S6gE4J
QBtCZSgxih72ylc8NYbZiHKynf0zU8YsxQPUuwDGVpY0Ju1zUYTOQVSdqashsyZB
p14YoVzqle/44PZc0wPaMB0rBUv73br5aPX48+Mt4f0ppM0l3JDTAyIXSaT4tVqL
MOK3pHEtNxMX7SNRu0fVtd8atD1YFDH4Lad7PnyZY+vT42Ypy/SE82Ne+gHIsSGY
k4D6iCS037J1obNkmsTOEo0uc4zyNJ7ViDGYdwrxKvSNvhvg0dNjRv9sAnS/v8LE
XG+GQirXN1dFnwiy8sSPw2GyXmucTMKTmv+L99VPYhuS8sBqTCJWjDCTlXEq6EeS
Nx3zVn7EEVR9njnEBg/NYaOdTCVSlvIHCJQ4EBRGmHbzTEEwJaLLLiDxiVfT8xo+
Dl9oS1L601Whc1kbdVbN3LPV4EX0WTa97Ruvf3hJNJw3TMljjauUj5P968i3LKPZ
gvCVxkOSEmHKuQi88vQuMExeELxvlvFncTatM/E+39JsK/ePHu3vT5OADMOKPHFJ
xjGnFJCEOJKwlI/xOqgVv7QMLY1dlGBFn+FwjLGMi+WUejHavamR2+asnqWZfil/
c8zygjE0jTVfs/I40k8I8LFso2lvS5p3xXJm//+FMmXK06UdXXpfDIWkZHWY9xg3
+mj07X/cH73oK4OBsM09m3LdF/VFguLIKEdZwx6ss4b737Yn6Ui7D15RZOVnvAbI
/oQ3W6dssmZCd/Eec1a2h8elP5YstC+UNuYbmDcowmKmQdzf90g6IuzjExqHz7P5
Txo6UULldUbFu1Bqy9yKTgPExExg8YZwdWerFGplFbBU7yiPD7aAvSPhYn4GyO6r
vFLYoN+TE6Aw/OY4lCF1zZEhik3lt7xJPc1vtoOLHpZ+aULEAcKdhz765X4P0iNe
Sfqx3REYQkbtV+zRXNOwBiiOp1FwkyP/aeTYtO0cJsnm9KZgRxy1n5pw4nbXO2h5
q4ZWSJcTYzInz0RJHbDPqr6NKz9TIanGW3yOis6XqgxgQV9Mm2hzPRdB9yc7G3lF
N0WtSwxbTcaTr+pI5s0Y7M8sGU4Ah3SayqtRcu/cFwOAdGgw1KQjhKtGmJRLbbOS
i2jUvOjKJc9pTWcyUvf76ylZypiEDaFRJwanPOmIRcFhVvTyQPhhLB9we2K8bp36
kB9lJhSv8H/G6qv3mRS73St8B7hzyGg=
-----END CERTIFICATE-----
