Certificate:
    Data:
        Version: 3 (0x2)
        Serial Number: 16 (0x10)
    Signature Algorithm: sha512WithRSAEncryption
        Issuer: C=CA, ST=Ontario, L=Russell, O=MilleGrilles, OU=Signature, CN=dev2.maple.mdugre.info
        Validity
            Not Before: Aug 14 23:08:32 2019 GMT
            Not After : Aug  5 23:08:32 2021 GMT
        Subject: C=CA, ST=Ontario, L=Russell, O=MilleGrilles, OU=MilleGrille, CN=test1
        Subject Public Key Info:
            Public Key Algorithm: rsaEncryption
                Public-Key: (4096 bit)
                Modulus:
                    00:a9:34:56:9e:f4:60:0d:ef:d0:24:5b:3d:20:81:
                    e7:6c:29:31:a8:e6:49:46:fb:68:c7:2d:4b:90:6c:
                    f2:1a:e9:09:91:1f:fc:d8:cf:48:42:3c:d5:d4:31:
                    02:9f:ba:89:f6:ce:41:07:0a:b7:1e:58:1e:40:8f:
                    44:0b:d9:e7:41:69:68:75:d8:39:90:a2:1c:b1:2d:
                    13:1e:3f:59:e2:2c:7b:b0:79:28:01:18:d3:5b:9d:
                    24:6d:85:cf:1c:5a:81:40:38:c1:43:82:56:33:33:
                    e6:d4:cd:6d:63:2c:82:24:5b:12:63:f3:3b:f9:99:
                    d9:c4:9c:7f:d5:ca:ae:98:e1:d1:4a:1e:97:60:2f:
                    a8:43:8f:f2:13:c0:55:86:8b:8d:bc:14:3b:91:c8:
                    73:56:b7:54:c1:39:fe:d2:69:a0:ab:41:0e:30:a7:
                    eb:9f:52:b4:36:d8:5e:11:0d:4e:c5:80:03:70:d2:
                    7c:b0:87:aa:03:eb:82:c4:ee:38:6c:eb:33:51:74:
                    ab:6e:51:3f:52:2d:27:ed:c7:10:74:36:9a:f6:89:
                    4d:0a:54:e3:ea:62:bf:8b:ca:72:c3:49:59:c2:c1:
                    d7:8f:16:b7:c8:7b:88:61:1d:7a:9e:0c:7c:d0:1e:
                    1c:c5:07:8f:20:92:c4:74:2b:88:f4:bd:2f:a8:01:
                    92:b9:ef:a5:c2:24:e2:ed:29:ac:50:ff:e2:3e:6f:
                    22:84:22:ec:ab:d2:a2:c1:75:91:30:24:01:0e:7b:
                    02:e2:5e:9e:66:cf:b3:53:59:63:63:bb:01:fc:97:
                    94:52:f2:3d:20:b0:f4:52:af:fd:16:ab:06:6c:3b:
                    ab:bb:05:7b:ee:2d:d3:f6:34:0a:b1:40:e1:f2:e7:
                    dd:95:3e:9e:cf:99:17:fc:4b:f5:ed:a7:59:d7:34:
                    29:88:38:03:34:f8:48:65:5c:94:35:97:76:51:17:
                    5a:33:64:d2:4f:65:03:46:c6:7c:6e:f6:46:cf:03:
                    bf:c9:5e:c1:40:32:a9:0d:41:e6:dc:a1:22:56:ab:
                    b2:8c:21:db:bb:92:51:3d:9f:6f:d1:ab:1e:f8:08:
                    b5:5e:3b:1b:22:f6:9d:ef:29:18:95:c7:90:cf:3f:
                    2c:a5:c1:db:8c:9c:37:7f:d2:e0:47:6e:7e:1e:9b:
                    7a:9b:91:ac:0a:ad:17:5f:22:7f:4c:86:02:83:8d:
                    8c:e0:e4:16:1a:27:4e:99:57:6f:20:99:84:05:c3:
                    aa:5a:31:dd:01:65:4d:25:f4:97:96:22:13:b6:7a:
                    9e:ca:1f:2e:85:71:0a:0c:d9:c9:84:f0:d9:7b:9e:
                    f1:68:2b:cc:c8:b5:b3:2d:a7:a7:28:dd:f8:a3:b2:
                    b6:b2:65
                Exponent: 65537 (0x10001)
        X509v3 extensions:
            X509v3 Subject Key Identifier: 
                4C:0A:2B:F6:7F:B7:BB:F6:BE:94:4F:43:BA:76:D2:8F:55:61:2F:47
            X509v3 Authority Key Identifier: 
                keyid:C4:BA:83:F8:F6:F5:5F:BA:E9:8E:5F:FB:01:1A:47:AF:BA:BC:F7:EB

            X509v3 Basic Constraints: 
                CA:TRUE
            X509v3 Key Usage: 
                Certificate Sign, CRL Sign
    Signature Algorithm: sha512WithRSAEncryption
         b4:62:fa:a3:9f:c1:7e:ce:49:83:5f:c9:fd:67:d9:62:59:82:
         3e:f9:4d:fe:99:e2:42:c0:75:c1:4c:2f:1e:12:96:54:d6:27:
         8e:38:7e:9a:14:f0:25:87:88:9d:92:6d:74:d4:54:3c:2b:10:
         91:1b:a4:a6:89:c8:e5:5d:41:58:dd:76:9f:32:94:62:89:5a:
         d2:a7:7c:bd:5a:f0:8c:77:dc:15:fa:2c:18:46:8b:f0:f5:f9:
         68:50:02:5a:a9:1c:10:45:e0:3e:7b:c7:0c:54:6e:ec:42:95:
         63:fd:1a:15:59:22:73:0b:98:22:77:07:d9:0b:93:b8:95:a3:
         45:d6:b4:1f:23:27:f0:66:48:dd:93:4b:c9:b0:8a:02:c4:83:
         61:d8:fe:72:dc:d5:3a:96:3f:61:d6:de:19:d1:b9:4a:7a:ad:
         bd:d8:39:ab:b5:57:45:ba:02:d4:01:78:af:b4:cd:c1:6a:4c:
         3c:d9:70:3f:bb:e1:7d:76:49:0e:2b:81:64:18:16:52:28:4f:
         e8:15:aa:be:7e:09:ec:27:51:3d:c0:bc:34:af:1c:7b:9a:db:
         88:f4:15:a0:a8:b9:5f:21:15:a4:13:35:59:70:46:b3:5e:24:
         5e:95:84:38:88:04:e1:a4:af:00:70:85:c1:35:e1:14:14:ae:
         bd:f2:2b:f0:fa:92:cd:57:26:5e:6f:32:14:2f:10:91:a1:76:
         92:dd:98:59:e8:34:c3:9f:a5:c2:d9:af:5c:21:3d:15:33:a0:
         44:0c:1c:1e:00:a9:2d:ca:1f:6b:82:c0:f6:5d:c0:08:be:30:
         49:86:89:4c:8d:61:94:52:dd:57:54:b2:3e:35:b7:1c:93:b3:
         87:66:f5:7e:36:0d:3e:69:e2:08:12:ae:e6:8b:9e:93:12:69:
         76:90:e6:83:9c:d8:08:58:7d:ff:26:c2:8b:7b:8a:53:70:27:
         54:51:13:02:66:b3:73:36:e6:db:16:42:1a:b8:b6:43:bf:ca:
         4c:be:72:13:a0:75:cc:9b:18:14:47:55:e3:bd:5e:d6:4e:db:
         29:7e:11:ba:ed:f9:60:74:96:17:60:5b:4b:52:f9:39:e3:62:
         92:79:3a:c8:fa:7d:df:ca:09:cc:c1:58:0a:ca:11:f7:ee:a3:
         b9:7b:c6:b4:be:15:1e:b4:4f:0f:21:69:23:30:37:cd:82:22:
         b1:7d:c4:0b:93:c4:8c:c6:cf:f3:73:e4:24:b5:ea:3c:24:fc:
         4e:a7:b7:8c:f2:de:b7:07:3a:eb:9c:03:c0:a0:a8:57:94:22:
         85:b2:69:2a:11:aa:22:9e:92:50:83:38:52:ca:d1:85:df:98:
         e0:72:21:73:d2:42:db:f5:ba:a4:fd:92:f1:39:8f:1e:15:80:
         8c:b4:e7:37:f0:8c:66:83:c4:ee:ca:11:20:3e:f5:77:38:c6:
         b1:3e:8f:ed:31:d6:21:e8:6d:5b:eb:20:bb:33:5e:f2:35:23:
         4b:41:fc:9f:00:bb:c4:0f:bc:dc:61:9f:20:07:df:41:3e:33:
         9f:ac:34:31:3a:f1:9b:b0:72:d7:be:44:ad:1b:f1:d7:3e:62:
         07:e5:8a:8b:6a:eb:af:37:d8:01:19:bc:d1:fa:f4:a1:ff:00:
         c9:58:69:bb:71:88:f5:81:da:57:8f:7c:ee:19:c3:e5:ec:cd:
         07:02:63:13:be:90:55:ae:d2:ee:d8:5b:e4:25:56:66:f6:07:
         b9:26:a5:7d:61:66:b8:76:b3:4c:7c:fa:38:b3:79:b4:ee:d5:
         26:d3:ee:b1:a5:d1:8d:66:0e:4c:27:9c:30:a7:9b:ca:e4:e8:
         92:59:7a:53:5b:b0:f5:ac:99:f3:60:fd:fb:46:02:04:7e:2e:
         a4:3d:9e:6d:0a:d4:1a:af:34:46:19:e4:50:0f:d4:1b:4c:23:
         97:fa:bb:45:d5:24:19:81:8a:ce:d7:56:35:5d:ee:e6:e6:9c:
         67:3c:48:93:6a:d2:62:7c:50:f9:53:6a:b1:08:8d:80:48:8c:
         08:ad:cb:67:b9:38:4b:7c:c2:30:1c:92:8e:5a:02:0e:0a:82:
         61:bf:2f:0a:9d:4e:f7:70:83:e7:79:6b:41:76:42:75:b9:25:
         40:76:6f:10:d4:ca:83:6f:9d:7f:15:dc:c4:67:dd:fe:67:e3:
         ab:c4:55:1d:99:fb:19:e1:80:c7:3a:14:64:45:90:0a:3b:68:
         85:51:0f:38:08:b9:39:ce:a3:82:b9:a2:91:9e:1e:01:8b:f5:
         67:40:9c:5d:f3:be:71:f6:84:82:9e:57:b7:9f:da:c1:60:9a:
         74:33:94:5f:81:22:fe:ae:d8:2d:de:a0:ee:9e:2e:10:66:a1:
         1e:a3:78:71:c0:da:7f:35:f8:ec:c1:6d:cc:54:e6:7c:74:4f:
         66:e6:27:2d:b4:86:4e:45:5d:a8:8d:25:f6:d9:28:cb:dc:ca:
         fd:10:cc:11:c4:6f:1f:2a:16:89:a3:d9:09:c3:fc:8b:b6:10:
         ea:92:f4:cf:e0:4d:c4:7b:2f:9d:7c:5b:6b:9e:5f:f7:93:dd:
         00:cf:14:c4:b5:38:e9:84:10:fa:b1:bf:94:8e:26:c6:31:36:
         ed:7f:92:f6:c4:89:34:2d:87:88:ec:47:23:e2:26:27:6f:5c:
         38:42:f8:33:ad:88:1e:ef:d8:02:ef:c4:6e:aa:71:cf:a5:94:
         99:78:b3:69:38:16:ac:72:bd:be:57:b9:5e:eb:20:6c
-----BEGIN CERTIFICATE-----
MIIHwzCCA6ugAwIBAgIBEDANBgkqhkiG9w0BAQ0FADB9MQswCQYDVQQGEwJDQTEQ
MA4GA1UECAwHT250YXJpbzEQMA4GA1UEBwwHUnVzc2VsbDEVMBMGA1UECgwMTWls
bGVHcmlsbGVzMRIwEAYDVQQLDAlTaWduYXR1cmUxHzAdBgNVBAMMFmRldjIubWFw
bGUubWR1Z3JlLmluZm8wHhcNMTkwODE0MjMwODMyWhcNMjEwODA1MjMwODMyWjBu
MQswCQYDVQQGEwJDQTEQMA4GA1UECAwHT250YXJpbzEQMA4GA1UEBwwHUnVzc2Vs
bDEVMBMGA1UECgwMTWlsbGVHcmlsbGVzMRQwEgYDVQQLDAtNaWxsZUdyaWxsZTEO
MAwGA1UEAwwFdGVzdDEwggIiMA0GCSqGSIb3DQEBAQUAA4ICDwAwggIKAoICAQCp
NFae9GAN79AkWz0ggedsKTGo5klG+2jHLUuQbPIa6QmRH/zYz0hCPNXUMQKfuon2
zkEHCrceWB5Aj0QL2edBaWh12DmQohyxLRMeP1niLHuweSgBGNNbnSRthc8cWoFA
OMFDglYzM+bUzW1jLIIkWxJj8zv5mdnEnH/Vyq6Y4dFKHpdgL6hDj/ITwFWGi428
FDuRyHNWt1TBOf7SaaCrQQ4wp+ufUrQ22F4RDU7FgANw0nywh6oD64LE7jhs6zNR
dKtuUT9SLSftxxB0Npr2iU0KVOPqYr+LynLDSVnCwdePFrfIe4hhHXqeDHzQHhzF
B48gksR0K4j0vS+oAZK576XCJOLtKaxQ/+I+byKEIuyr0qLBdZEwJAEOewLiXp5m
z7NTWWNjuwH8l5RS8j0gsPRSr/0WqwZsO6u7BXvuLdP2NAqxQOHy592VPp7PmRf8
S/Xtp1nXNCmIOAM0+EhlXJQ1l3ZRF1ozZNJPZQNGxnxu9kbPA7/JXsFAMqkNQebc
oSJWq7KMIdu7klE9n2/Rqx74CLVeOxsi9p3vKRiVx5DPPyylwduMnDd/0uBHbn4e
m3qbkawKrRdfIn9MhgKDjYzg5BYaJ06ZV28gmYQFw6paMd0BZU0l9JeWIhO2ep7K
Hy6FcQoM2cmE8Nl7nvFoK8zItbMtp6co3fijsrayZQIDAQABo10wWzAdBgNVHQ4E
FgQUTAor9n+3u/a+lE9DunbSj1VhL0cwHwYDVR0jBBgwFoAUxLqD+Pb1X7rpjl/7
ARpHr7q89+swDAYDVR0TBAUwAwEB/zALBgNVHQ8EBAMCAQYwDQYJKoZIhvcNAQEN
BQADggQBALRi+qOfwX7OSYNfyf1n2WJZgj75Tf6Z4kLAdcFMLx4SllTWJ444fpoU
8CWHiJ2SbXTUVDwrEJEbpKaJyOVdQVjddp8ylGKJWtKnfL1a8Ix33BX6LBhGi/D1
+WhQAlqpHBBF4D57xwxUbuxClWP9GhVZInMLmCJ3B9kLk7iVo0XWtB8jJ/BmSN2T
S8mwigLEg2HY/nLc1TqWP2HW3hnRuUp6rb3YOau1V0W6AtQBeK+0zcFqTDzZcD+7
4X12SQ4rgWQYFlIoT+gVqr5+CewnUT3AvDSvHHua24j0FaCouV8hFaQTNVlwRrNe
JF6VhDiIBOGkrwBwhcE14RQUrr3yK/D6ks1XJl5vMhQvEJGhdpLdmFnoNMOfpcLZ
r1whPRUzoEQMHB4AqS3KH2uCwPZdwAi+MEmGiUyNYZRS3VdUsj41txyTs4dm9X42
DT5p4ggSruaLnpMSaXaQ5oOc2AhYff8mwot7ilNwJ1RREwJms3M25tsWQhq4tkO/
yky+chOgdcybGBRHVeO9XtZO2yl+Ebrt+WB0lhdgW0tS+TnjYpJ5Osj6fd/KCczB
WArKEffuo7l7xrS+FR60Tw8haSMwN82CIrF9xAuTxIzGz/Nz5CS16jwk/E6nt4zy
3rcHOuucA8CgqFeUIoWyaSoRqiKeklCDOFLK0YXfmOByIXPSQtv1uqT9kvE5jx4V
gIy05zfwjGaDxO7KESA+9Xc4xrE+j+0x1iHobVvrILszXvI1I0tB/J8Au8QPvNxh
nyAH30E+M5+sNDE68Zuwcte+RK0b8dc+Ygfliotq66832AEZvNH69KH/AMlYabtx
iPWB2lePfO4Zw+XszQcCYxO+kFWu0u7YW+QlVmb2B7kmpX1hZrh2s0x8+jizebTu
1SbT7rGl0Y1mDkwnnDCnm8rk6JJZelNbsPWsmfNg/ftGAgR+LqQ9nm0K1BqvNEYZ
5FAP1BtMI5f6u0XVJBmBis7XVjVd7ubmnGc8SJNq0mJ8UPlTarEIjYBIjAity2e5
OEt8wjAcko5aAg4KgmG/LwqdTvdwg+d5a0F2QnW5JUB2bxDUyoNvnX8V3MRn3f5n
46vEVR2Z+xnhgMc6FGRFkAo7aIVRDzgIuTnOo4K5opGeHgGL9WdAnF3zvnH2hIKe
V7ef2sFgmnQzlF+BIv6u2C3eoO6eLhBmoR6jeHHA2n81+OzBbcxU5nx0T2bmJy20
hk5FXaiNJfbZKMvcyv0QzBHEbx8qFomj2QnD/Iu2EOqS9M/gTcR7L518W2ueX/eT
3QDPFMS1OOmEEPqxv5SOJsYxNu1/kvbEiTQth4jsRyPiJidvXDhC+DOtiB7v2ALv
xG6qcc+llJl4s2k4Fqxyvb5XuV7rIGw=
-----END CERTIFICATE-----
