Certificate:
    Data:
        Version: 3 (0x2)
        Serial Number: 17 (0x11)
    Signature Algorithm: sha512WithRSAEncryption
        Issuer: C=CA, ST=Ontario, L=Russell, O=MilleGrilles, OU=Signature, CN=dev2.maple.mdugre.info
        Validity
            Not Before: Aug 14 23:13:38 2019 GMT
            Not After : Aug  5 23:13:38 2021 GMT
        Subject: C=CA, ST=Ontario, L=Russell, O=MilleGrilles, OU=MilleGrille, CN=test1
        Subject Public Key Info:
            Public Key Algorithm: rsaEncryption
                Public-Key: (4096 bit)
                Modulus:
                    00:d4:6a:67:19:4a:4e:e1:df:5b:60:ff:30:7b:3d:
                    63:df:40:ca:4f:2c:16:8d:c1:c5:3a:06:64:12:f8:
                    dc:a7:e1:53:22:68:87:6c:e3:12:ad:f0:1d:45:d4:
                    60:34:7a:6d:d4:85:06:0c:42:46:c7:8f:5d:42:02:
                    da:27:36:83:5c:f8:9d:b0:b7:26:93:45:97:b0:72:
                    38:50:e6:09:c0:d0:23:1f:da:80:10:c2:ee:39:83:
                    fd:b1:7a:d0:1a:87:99:99:bb:70:1b:cd:ae:8f:83:
                    81:33:23:6f:dd:75:86:aa:ce:d1:60:00:28:c0:24:
                    d6:8b:64:a6:88:6f:76:3a:95:3f:ba:36:09:ac:35:
                    b1:47:af:d3:83:fd:54:c0:82:9c:f9:8a:5c:a0:3f:
                    c6:fb:85:97:f5:ae:47:4c:19:c1:09:10:f2:99:f4:
                    de:60:9a:79:0c:e0:fb:e0:ca:dd:26:2e:a2:33:4b:
                    9b:c1:1a:48:96:5d:26:3d:ed:50:c4:c9:56:ff:79:
                    d2:15:7a:a1:8a:13:65:ba:79:34:a2:57:7f:05:c7:
                    7c:05:7a:dc:57:59:de:29:0a:ed:fc:41:a7:8d:f5:
                    8c:db:49:c7:fc:fc:87:8c:73:3c:ba:32:9c:70:bf:
                    59:21:c4:d7:67:8e:0d:2e:cb:3f:56:73:cb:66:32:
                    cd:67:2c:cb:c6:8b:d3:b0:f1:6a:1e:b9:62:81:17:
                    0e:dc:ef:d9:ae:d5:86:d5:c2:85:e7:34:8b:8a:9e:
                    e3:dd:2e:82:da:6b:dc:8f:f1:64:6f:68:6d:08:6b:
                    c2:5f:8c:2f:c7:44:be:80:f8:b8:d2:4d:8f:d0:65:
                    47:0a:35:ca:77:49:02:44:68:f7:72:68:e3:7f:8e:
                    b4:6b:70:d6:1a:4e:9c:cb:ea:6e:10:a1:49:df:cd:
                    21:ec:32:67:8d:11:2b:ae:ec:af:48:0d:fd:44:9a:
                    dd:f0:82:20:4e:91:83:80:92:b7:6c:05:65:60:b1:
                    31:23:ab:7c:f8:6e:9e:80:4e:1d:bd:b9:a6:52:e8:
                    23:f4:a9:74:be:1e:92:e7:93:ec:94:1a:56:be:79:
                    af:e7:1d:15:7d:3b:42:f6:85:e2:c9:0f:34:f4:a4:
                    59:0c:fc:43:9e:78:74:3f:5f:af:98:54:77:00:2a:
                    e4:7a:81:91:81:46:6e:a6:02:ba:67:3b:8a:fd:e2:
                    c5:02:d3:09:a0:43:7f:4d:09:31:4a:51:3a:52:75:
                    29:af:32:e0:8c:58:af:eb:e7:1b:a2:eb:a8:b2:22:
                    0b:0c:94:85:05:fd:cb:fb:fb:d0:8a:89:70:dc:f8:
                    9a:4b:f3:d3:da:98:30:b2:21:dc:fe:a4:8c:c9:4a:
                    5d:9b:a7
                Exponent: 65537 (0x10001)
        X509v3 extensions:
            X509v3 Subject Key Identifier: 
                B9:6B:5E:38:85:3B:4E:1C:1C:B6:0E:58:56:AA:FD:D3:99:7F:EB:1E
            X509v3 Authority Key Identifier: 
                keyid:C4:BA:83:F8:F6:F5:5F:BA:E9:8E:5F:FB:01:1A:47:AF:BA:BC:F7:EB

            X509v3 Basic Constraints: 
                CA:TRUE
            X509v3 Key Usage: 
                Certificate Sign, CRL Sign
    Signature Algorithm: sha512WithRSAEncryption
         86:7e:cd:3e:3c:30:e7:a3:cb:3d:a8:fe:fe:aa:bd:b4:50:54:
         4e:01:c6:31:3d:e6:5b:15:73:59:f0:e1:0a:5e:20:00:1a:49:
         b7:41:1e:ab:7e:5f:86:43:06:d9:ae:82:f3:a1:5c:64:56:70:
         4c:a6:8a:d4:71:13:8a:1b:be:a8:25:6b:97:a4:4d:15:b6:dd:
         7b:e0:f1:5a:e0:b5:12:ad:f6:51:b9:b8:d8:fc:60:2c:9e:00:
         1e:00:4c:8c:f7:7d:08:90:f8:6f:9d:c1:12:f1:e7:fb:34:10:
         9e:3e:4e:b2:54:85:f0:64:68:45:12:8e:f8:b1:df:cf:3f:5a:
         0a:c1:a3:29:d0:d6:e1:00:72:14:50:3d:78:48:45:af:f1:34:
         58:9d:e5:db:d6:fe:bb:e7:f1:8e:c6:9b:5b:b7:76:2b:09:28:
         d9:b3:e0:c8:dd:2f:8c:40:93:9b:53:9f:22:55:df:fb:81:20:
         76:bc:b4:ee:61:ad:05:ea:bc:ae:0f:5d:4a:f5:df:49:4c:03:
         13:33:6e:c9:a8:c8:29:12:21:3c:b5:76:ac:e4:49:65:db:b6:
         c6:20:c1:d5:c1:78:b1:54:60:e4:66:ad:1b:54:06:b0:60:3b:
         71:8f:bf:60:42:e8:f5:54:07:31:10:6b:7f:2a:44:d9:f5:bd:
         69:84:66:21:95:b6:fe:c1:03:96:bf:a6:b5:91:5e:42:4b:3e:
         93:e2:46:0d:f4:e9:ce:a6:2d:3d:e1:29:36:40:91:f3:03:ef:
         78:88:1b:51:3c:a4:84:de:b6:c7:fa:dc:fe:d7:a0:5d:d3:6b:
         fe:88:40:fb:cd:3b:40:6a:7a:e0:f2:5e:af:e2:b6:24:81:e7:
         44:91:a0:38:ef:ee:c3:b4:ba:6a:62:f2:39:d3:56:99:6b:ec:
         9f:8b:d0:73:be:36:1e:11:fc:be:26:4b:63:d4:bf:78:b1:43:
         cc:d0:98:76:01:4d:15:b9:8f:da:d3:c1:0a:6e:7f:1a:78:00:
         9d:a2:06:93:e7:73:5c:8c:d6:de:25:5e:2a:8b:4e:44:50:10:
         ad:81:f2:f5:5c:2f:a9:f0:42:5c:01:fd:ee:dc:fb:c1:f5:fa:
         ab:c9:2f:d2:3c:d6:03:3a:2b:c5:70:e3:cd:9e:1d:73:85:09:
         dc:d8:17:24:f0:a3:83:d8:9c:05:6a:37:d0:6c:91:ca:2a:f7:
         7b:d2:6e:4a:97:d3:0f:b2:ef:43:3b:ad:4e:70:bd:67:19:66:
         ce:4d:ac:44:9a:35:b2:1b:f7:46:29:d1:cf:e0:6b:f1:05:2d:
         d1:6b:d9:18:47:b4:f9:42:a4:6c:29:f1:3d:d9:5a:ee:6d:e4:
         78:b1:de:4a:79:ff:f1:a0:e6:31:d6:05:cc:59:64:5d:82:58:
         49:3e:4d:75:a5:2d:00:fb:37:02:e0:7a:1a:8a:69:28:f2:9f:
         bd:0a:45:20:25:5a:cf:93:b2:12:30:ab:40:23:a4:31:b5:1e:
         af:e7:8f:48:b1:51:b5:60:b5:ea:37:b6:ab:98:8f:45:5e:64:
         07:ca:d8:e3:6e:07:d8:cf:cb:42:44:4c:68:75:9e:57:eb:a4:
         81:9e:63:19:cb:ed:dc:68:f3:5b:7e:e9:a0:28:a4:d2:b5:e0:
         fd:e4:35:97:af:16:00:41:95:64:67:a5:88:cf:8e:10:42:4f:
         07:e9:09:ce:f3:7c:ff:8b:02:93:68:db:e9:8b:12:72:36:b9:
         0f:d9:77:fd:1e:6e:3b:e1:cc:b3:1b:1e:75:bc:3a:24:6a:52:
         c4:35:4a:f9:b3:4c:81:04:68:dc:9b:c0:a8:04:0c:e9:03:11:
         d8:15:41:97:58:3b:ef:cd:f2:46:fa:7e:45:7a:f2:ec:7d:c3:
         c8:fc:79:ec:1c:27:bc:7c:e0:af:bd:fd:da:77:4e:e1:90:99:
         95:2e:25:53:72:1e:3f:8f:e2:b2:52:67:ff:2d:e2:9a:c9:f3:
         ed:30:84:07:82:f8:6d:6f:39:1a:76:7c:58:2a:04:e8:c8:18:
         d6:48:63:b7:37:74:93:4a:85:9e:b0:55:ed:aa:eb:9f:3b:66:
         e7:2d:e4:01:34:d8:87:5c:aa:8e:b9:80:ee:b1:88:b5:13:1e:
         81:fd:47:a2:e7:07:c1:e3:5f:84:ed:c5:86:ad:12:e9:20:8c:
         89:d7:06:5b:fe:95:c9:46:48:37:0e:0c:a7:f8:d3:65:98:17:
         9c:b1:15:95:3b:23:f2:af:1c:d0:76:66:83:2a:3b:eb:11:4a:
         45:00:af:47:15:f8:50:c8:fd:d2:45:da:ce:2b:44:d7:83:f3:
         78:91:81:2a:bd:86:93:d9:cb:94:38:00:ea:bd:57:98:ee:a1:
         5f:49:01:f6:5f:1c:a0:8f:b8:a0:16:ba:63:df:3f:c0:0f:1e:
         d5:78:82:13:98:d9:f6:42:24:ea:e4:ba:0a:e0:9d:47:78:6f:
         d6:67:a4:83:a3:aa:0c:34:2c:1c:cc:69:64:5c:ab:d1:da:ea:
         e4:2d:aa:09:7b:91:fb:d0:7f:13:8a:5f:05:5f:51:9f:5c:26:
         8e:5c:3c:c1:8f:7a:c3:c3:47:bb:f6:59:dd:d3:00:84:60:21:
         4c:c6:b4:c1:50:d0:54:9e:92:b4:cb:a7:41:c4:35:87:21:26:
         5b:bb:1e:2d:d8:4d:0b:9e:a5:9b:8f:be:43:80:52:a3:1c:2c:
         bb:37:07:13:ba:2e:c6:fa:68:fb:b1:6c:74:5a:15:9e
-----BEGIN CERTIFICATE-----
MIIHwzCCA6ugAwIBAgIBETANBgkqhkiG9w0BAQ0FADB9MQswCQYDVQQGEwJDQTEQ
MA4GA1UECAwHT250YXJpbzEQMA4GA1UEBwwHUnVzc2VsbDEVMBMGA1UECgwMTWls
bGVHcmlsbGVzMRIwEAYDVQQLDAlTaWduYXR1cmUxHzAdBgNVBAMMFmRldjIubWFw
bGUubWR1Z3JlLmluZm8wHhcNMTkwODE0MjMxMzM4WhcNMjEwODA1MjMxMzM4WjBu
MQswCQYDVQQGEwJDQTEQMA4GA1UECAwHT250YXJpbzEQMA4GA1UEBwwHUnVzc2Vs
bDEVMBMGA1UECgwMTWlsbGVHcmlsbGVzMRQwEgYDVQQLDAtNaWxsZUdyaWxsZTEO
MAwGA1UEAwwFdGVzdDEwggIiMA0GCSqGSIb3DQEBAQUAA4ICDwAwggIKAoICAQDU
amcZSk7h31tg/zB7PWPfQMpPLBaNwcU6BmQS+Nyn4VMiaIds4xKt8B1F1GA0em3U
hQYMQkbHj11CAtonNoNc+J2wtyaTRZewcjhQ5gnA0CMf2oAQwu45g/2xetAah5mZ
u3Abza6Pg4EzI2/ddYaqztFgACjAJNaLZKaIb3Y6lT+6NgmsNbFHr9OD/VTAgpz5
ilygP8b7hZf1rkdMGcEJEPKZ9N5gmnkM4Pvgyt0mLqIzS5vBGkiWXSY97VDEyVb/
edIVeqGKE2W6eTSiV38Fx3wFetxXWd4pCu38QaeN9YzbScf8/IeMczy6Mpxwv1kh
xNdnjg0uyz9Wc8tmMs1nLMvGi9Ow8WoeuWKBFw7c79mu1YbVwoXnNIuKnuPdLoLa
a9yP8WRvaG0Ia8JfjC/HRL6A+LjSTY/QZUcKNcp3SQJEaPdyaON/jrRrcNYaTpzL
6m4QoUnfzSHsMmeNESuu7K9IDf1Emt3wgiBOkYOAkrdsBWVgsTEjq3z4bp6ATh29
uaZS6CP0qXS+HpLnk+yUGla+ea/nHRV9O0L2heLJDzT0pFkM/EOeeHQ/X6+YVHcA
KuR6gZGBRm6mArpnO4r94sUC0wmgQ39NCTFKUTpSdSmvMuCMWK/r5xui66iyIgsM
lIUF/cv7+9CKiXDc+JpL89PamDCyIdz+pIzJSl2bpwIDAQABo10wWzAdBgNVHQ4E
FgQUuWteOIU7Thwctg5YVqr905l/6x4wHwYDVR0jBBgwFoAUxLqD+Pb1X7rpjl/7
ARpHr7q89+swDAYDVR0TBAUwAwEB/zALBgNVHQ8EBAMCAQYwDQYJKoZIhvcNAQEN
BQADggQBAIZ+zT48MOejyz2o/v6qvbRQVE4BxjE95lsVc1nw4QpeIAAaSbdBHqt+
X4ZDBtmugvOhXGRWcEymitRxE4obvqgla5ekTRW23Xvg8VrgtRKt9lG5uNj8YCye
AB4ATIz3fQiQ+G+dwRLx5/s0EJ4+TrJUhfBkaEUSjvix388/WgrBoynQ1uEAchRQ
PXhIRa/xNFid5dvW/rvn8Y7Gm1u3disJKNmz4MjdL4xAk5tTnyJV3/uBIHa8tO5h
rQXqvK4PXUr130lMAxMzbsmoyCkSITy1dqzkSWXbtsYgwdXBeLFUYORmrRtUBrBg
O3GPv2BC6PVUBzEQa38qRNn1vWmEZiGVtv7BA5a/prWRXkJLPpPiRg306c6mLT3h
KTZAkfMD73iIG1E8pITetsf63P7XoF3Ta/6IQPvNO0BqeuDyXq/itiSB50SRoDjv
7sO0umpi8jnTVplr7J+L0HO+Nh4R/L4mS2PUv3ixQ8zQmHYBTRW5j9rTwQpufxp4
AJ2iBpPnc1yM1t4lXiqLTkRQEK2B8vVcL6nwQlwB/e7c+8H1+qvJL9I81gM6K8Vw
482eHXOFCdzYFyTwo4PYnAVqN9Bskcoq93vSbkqX0w+y70M7rU5wvWcZZs5NrESa
NbIb90Yp0c/ga/EFLdFr2RhHtPlCpGwp8T3ZWu5t5Hix3kp5//Gg5jHWBcxZZF2C
WEk+TXWlLQD7NwLgehqKaSjyn70KRSAlWs+TshIwq0AjpDG1Hq/nj0ixUbVgteo3
tquYj0VeZAfK2ONuB9jPy0JETGh1nlfrpIGeYxnL7dxo81t+6aAopNK14P3kNZev
FgBBlWRnpYjPjhBCTwfpCc7zfP+LApNo2+mLEnI2uQ/Zd/0ebjvhzLMbHnW8OiRq
UsQ1SvmzTIEEaNybwKgEDOkDEdgVQZdYO+/N8kb6fkV68ux9w8j8eewcJ7x84K+9
/dp3TuGQmZUuJVNyHj+P4rJSZ/8t4prJ8+0whAeC+G1vORp2fFgqBOjIGNZIY7c3
dJNKhZ6wVe2q6587Zuct5AE02Idcqo65gO6xiLUTHoH9R6LnB8HjX4TtxYatEukg
jInXBlv+lclGSDcODKf402WYF5yxFZU7I/KvHNB2ZoMqO+sRSkUAr0cV+FDI/dJF
2s4rRNeD83iRgSq9hpPZy5Q4AOq9V5juoV9JAfZfHKCPuKAWumPfP8APHtV4ghOY
2fZCJOrkugrgnUd4b9ZnpIOjqgw0LBzMaWRcq9Ha6uQtqgl7kfvQfxOKXwVfUZ9c
Jo5cPMGPesPDR7v2Wd3TAIRgIUzGtMFQ0FSekrTLp0HENYchJlu7Hi3YTQuepZuP
vkOAUqMcLLs3BxO6Lsb6aPuxbHRaFZ4=
-----END CERTIFICATE-----
