Certificate:
    Data:
        Version: 3 (0x2)
        Serial Number: 18 (0x12)
    Signature Algorithm: sha512WithRSAEncryption
        Issuer: C=CA, ST=Ontario, L=Russell, O=MilleGrilles, OU=Signature, CN=dev2.maple.mdugre.info
        Validity
            Not Before: Aug 14 23:40:02 2019 GMT
            Not After : Aug  5 23:40:02 2021 GMT
        Subject: C=CA, ST=Ontario, L=Russell, O=MilleGrilles, OU=MilleGrille, CN=maple
        Subject Public Key Info:
            Public Key Algorithm: rsaEncryption
                Public-Key: (4096 bit)
                Modulus:
                    00:e1:4c:a0:9a:ea:ce:88:24:15:ce:36:ef:46:a7:
                    51:20:eb:f9:ba:90:d5:3a:8c:f5:fe:ee:67:5d:02:
                    08:5a:c2:62:21:72:74:68:44:7d:b4:3d:7c:53:67:
                    13:fe:d3:90:20:06:a7:96:8d:66:76:0b:95:22:76:
                    c0:07:74:72:9b:16:3f:b2:5f:ab:4c:bb:32:c8:5b:
                    48:7a:8f:1c:c1:6b:74:98:a5:bc:4a:d4:9e:a1:26:
                    6f:35:58:be:68:6d:90:0b:d9:e4:ed:18:60:38:19:
                    c7:b0:54:96:a4:64:79:b7:a9:b4:6f:54:52:dc:fc:
                    7b:61:50:bf:19:54:9e:c5:6c:7a:55:79:96:22:df:
                    ce:63:27:47:aa:cf:8e:a7:9e:d3:4b:d7:33:c0:9b:
                    15:7a:af:71:ea:f5:f1:fa:ef:88:b0:12:31:12:a3:
                    ed:1c:65:33:3d:b6:3c:57:a7:20:0e:d1:d9:ed:15:
                    e3:f5:af:6a:1b:38:50:d5:19:2e:8e:f4:21:1a:12:
                    04:8a:39:83:3a:22:ee:71:b7:0f:85:ef:6a:50:88:
                    c4:b2:2b:f8:c5:c8:d6:6b:9b:bc:b8:a3:69:cd:0b:
                    4a:80:e1:cd:a3:75:cc:2f:8e:ed:8c:de:3a:29:6b:
                    62:32:22:05:2a:f0:18:38:e5:71:e3:ba:3e:27:24:
                    f5:c6:34:76:eb:2a:0f:87:c8:6f:b0:e5:4d:aa:43:
                    0f:d1:5e:98:fa:9d:1f:38:62:cd:c9:16:8c:e1:dd:
                    25:3d:3a:cd:be:cd:6e:11:b4:eb:49:3f:13:34:c9:
                    aa:16:e1:70:68:1d:41:5a:d4:39:a0:ce:60:69:4b:
                    af:f7:fe:b1:68:97:0e:01:f1:55:91:49:e8:7f:da:
                    36:29:a5:8c:7a:8a:38:a0:1e:f4:1b:bd:b0:7d:48:
                    f2:d7:d8:47:c8:f3:16:83:c0:64:5d:b8:7b:94:81:
                    2b:35:f8:08:4b:69:12:be:8c:bb:58:a4:7b:44:3a:
                    2d:b4:ac:a0:6f:e6:ef:e5:26:13:55:e6:3a:56:28:
                    52:82:67:e2:fe:14:d4:ee:4e:b8:9a:54:b4:d6:9b:
                    30:c2:69:73:84:f7:dd:99:81:ff:d6:0a:fd:4e:4e:
                    93:92:fa:ed:3a:b2:2c:29:40:0c:fd:06:a9:e7:a9:
                    97:42:7a:3f:58:d8:c6:f6:a5:b1:3d:00:4f:39:47:
                    02:e0:6b:46:f8:41:bb:a5:69:ca:5f:09:ce:52:0f:
                    07:14:6f:ca:50:49:7d:e4:b0:19:e9:3a:c1:89:ac:
                    f9:68:b6:25:71:1a:d5:31:37:ac:fd:86:53:18:f6:
                    26:c2:b0:d6:25:5c:33:df:47:54:c7:d6:ff:a5:5f:
                    e8:c6:df
                Exponent: 65537 (0x10001)
        X509v3 extensions:
            X509v3 Subject Key Identifier: 
                E2:FD:08:48:A9:32:89:74:21:80:8F:EE:1E:45:3F:A6:30:18:C2:51
            X509v3 Authority Key Identifier: 
                keyid:C4:BA:83:F8:F6:F5:5F:BA:E9:8E:5F:FB:01:1A:47:AF:BA:BC:F7:EB

            X509v3 Basic Constraints: 
                CA:TRUE
            X509v3 Key Usage: 
                Certificate Sign, CRL Sign
    Signature Algorithm: sha512WithRSAEncryption
         33:df:28:c3:47:34:94:fa:32:2a:36:06:29:38:ce:8c:b2:c9:
         9c:8d:55:b3:da:db:4d:9e:b2:6f:3d:9f:03:75:67:ac:9d:a8:
         e2:6f:78:87:f2:91:c2:18:49:18:62:0b:6d:12:71:48:cd:6f:
         2d:ec:fe:f3:33:87:a8:4b:f8:ba:b1:b9:59:3d:ed:5b:b4:fe:
         b4:ad:2e:49:64:0b:f0:7a:76:a8:44:f1:77:e9:db:cf:5a:1a:
         b0:73:8b:fd:3b:15:5b:ba:22:5a:b9:73:1d:a9:a6:43:ed:d0:
         9a:d2:13:02:b7:36:f1:fa:e4:c8:46:4c:3a:2b:ac:b1:0b:05:
         01:a1:8d:c5:79:a5:db:83:d9:4a:2b:34:d4:7d:14:1c:56:03:
         11:af:5b:b0:dd:29:b6:4a:21:00:bd:ff:87:1e:51:ae:72:b1:
         ac:54:12:15:97:f9:85:06:ec:8a:19:61:3d:fd:c1:b9:24:cb:
         02:f8:0a:02:2d:72:a8:e4:9d:68:04:43:3e:7b:1b:aa:b7:c8:
         91:89:37:47:c9:94:37:82:1b:2f:2d:1e:b2:70:43:51:7a:da:
         c1:4e:a3:fd:67:79:c0:55:d9:08:85:7d:c8:56:9a:21:de:6d:
         04:c4:2f:15:1a:22:81:65:08:9f:63:e9:b5:6b:85:32:f3:f9:
         53:e6:fb:a3:01:20:3c:ab:b2:28:18:d9:07:86:e2:87:8a:33:
         af:f4:33:7d:f5:5c:2e:33:76:30:5d:3a:f1:d5:e8:0d:a6:af:
         f7:10:2c:49:d2:76:b8:25:78:3d:14:63:56:80:9d:10:16:69:
         05:b0:26:2c:a9:62:54:6e:10:23:3c:48:49:0e:5c:fd:50:11:
         2a:38:79:84:49:97:43:1a:06:ad:44:8a:de:6a:06:13:89:a7:
         c9:6b:aa:da:50:83:5e:5f:00:18:e2:fc:fa:a8:f7:cd:bb:2c:
         93:45:79:d2:0e:81:af:73:83:cf:90:94:c5:45:ee:82:00:1e:
         de:dc:e0:49:30:cc:a5:14:3b:cd:5e:c7:c8:27:f8:45:1b:ab:
         4f:f1:57:e5:b0:e2:e6:64:c9:cf:9f:1b:61:19:75:ad:7f:a2:
         b1:e1:7a:32:13:f8:f7:a1:54:e8:7e:a7:43:4d:77:3a:d8:2b:
         0c:1d:55:b9:58:c0:50:55:ec:ca:62:87:b7:46:11:3e:5a:c7:
         01:27:d9:68:2b:78:86:74:73:16:dc:3c:2a:bc:df:61:59:6e:
         2d:4c:f4:55:22:24:c1:45:d6:4e:3b:98:6e:ee:86:dd:af:74:
         e5:e8:bc:7c:53:1e:7d:18:ab:31:08:4f:2a:aa:3e:47:40:e2:
         26:6c:2b:de:2e:f7:2d:ce:38:6e:39:ac:f4:6f:2b:73:40:41:
         55:0f:d1:38:30:f8:38:43:24:01:6e:8a:66:fc:53:2f:35:2c:
         28:10:47:13:34:a9:20:49:4a:b8:d9:2b:20:f2:d1:e0:e1:97:
         29:83:06:8b:8f:9b:b9:68:2e:ba:37:fb:46:fb:4c:cc:41:10:
         48:3a:5c:35:4d:2a:40:40:8c:0c:22:a7:a8:15:0b:f4:eb:19:
         6e:9c:95:48:af:fe:55:73:96:34:90:ea:cf:9d:c8:6c:fc:02:
         51:24:08:1c:6f:8a:58:04:d9:ec:de:5a:5d:13:b5:45:e1:13:
         0f:d4:1b:81:d1:e5:55:85:70:32:5d:2a:a1:57:eb:82:75:d7:
         67:60:f5:ca:8f:90:d2:b7:9f:09:ca:90:0c:dc:e0:86:e8:09:
         8c:27:87:93:b6:37:f2:07:f7:7b:ab:fe:b8:de:93:db:59:2e:
         07:6a:bc:76:93:38:81:9a:2f:70:39:bc:93:d0:04:ea:e4:f0:
         ac:56:28:cf:93:8d:b2:fb:3f:6e:7f:98:19:95:ce:53:82:60:
         8e:51:2c:d5:45:bd:4c:f4:13:2a:6a:b6:91:18:fe:8c:03:2c:
         8b:23:97:6f:a7:e4:e2:7b:fe:78:6a:20:43:35:b7:42:08:9c:
         44:de:86:27:0a:70:72:4e:54:a9:e8:3d:47:8b:f5:dd:6b:52:
         f6:ba:f4:38:00:f7:10:a5:7d:fd:44:17:99:4c:34:01:c8:7c:
         96:21:18:7c:5b:c2:d7:2e:6e:fd:c4:65:15:f5:51:20:c7:85:
         a5:ee:49:ce:e8:c9:9a:45:3b:76:1e:32:df:ba:51:49:f9:a4:
         7f:63:e3:6d:61:d5:a4:c7:9f:19:87:55:ab:45:62:c9:e9:34:
         eb:0f:30:72:1a:4b:b9:79:6e:3a:ef:b8:e7:47:9d:70:85:0e:
         04:d3:8b:44:9b:6b:fb:af:f3:0d:72:f0:06:56:7a:63:b2:ea:
         32:40:40:d8:69:e0:45:04:3b:0d:9b:23:8d:ca:a4:5a:c7:d2:
         ad:ff:f4:ae:e8:7d:92:e5:a4:94:72:4c:21:64:62:4b:0b:b0:
         a5:1d:0e:1b:99:67:60:8c:82:22:bb:63:71:69:78:2c:14:51:
         e3:28:65:63:7c:e2:75:2b:cb:a5:b7:fa:3a:af:77:87:f0:d8:
         58:48:f4:20:f8:d4:89:b5:f2:37:98:29:f0:4a:9a:15:92:89:
         f8:38:93:fd:4d:41:8b:e1:3e:54:31:ff:7a:3c:52:ad:5e:c3:
         08:05:09:0e:0b:29:40:e6:ec:28:42:15:e2:16:07:ed:19:d2:
         99:44:81:81:19:3a:df:77:84:e5:9d:5e:e5:5d:7b:b4
-----BEGIN CERTIFICATE-----
MIIHwzCCA6ugAwIBAgIBEjANBgkqhkiG9w0BAQ0FADB9MQswCQYDVQQGEwJDQTEQ
MA4GA1UECAwHT250YXJpbzEQMA4GA1UEBwwHUnVzc2VsbDEVMBMGA1UECgwMTWls
bGVHcmlsbGVzMRIwEAYDVQQLDAlTaWduYXR1cmUxHzAdBgNVBAMMFmRldjIubWFw
bGUubWR1Z3JlLmluZm8wHhcNMTkwODE0MjM0MDAyWhcNMjEwODA1MjM0MDAyWjBu
MQswCQYDVQQGEwJDQTEQMA4GA1UECAwHT250YXJpbzEQMA4GA1UEBwwHUnVzc2Vs
bDEVMBMGA1UECgwMTWlsbGVHcmlsbGVzMRQwEgYDVQQLDAtNaWxsZUdyaWxsZTEO
MAwGA1UEAwwFbWFwbGUwggIiMA0GCSqGSIb3DQEBAQUAA4ICDwAwggIKAoICAQDh
TKCa6s6IJBXONu9Gp1Eg6/m6kNU6jPX+7mddAghawmIhcnRoRH20PXxTZxP+05Ag
BqeWjWZ2C5UidsAHdHKbFj+yX6tMuzLIW0h6jxzBa3SYpbxK1J6hJm81WL5obZAL
2eTtGGA4GcewVJakZHm3qbRvVFLc/HthUL8ZVJ7FbHpVeZYi385jJ0eqz46nntNL
1zPAmxV6r3Hq9fH674iwEjESo+0cZTM9tjxXpyAO0dntFeP1r2obOFDVGS6O9CEa
EgSKOYM6Iu5xtw+F72pQiMSyK/jFyNZrm7y4o2nNC0qA4c2jdcwvju2M3jopa2Iy
IgUq8Bg45XHjuj4nJPXGNHbrKg+HyG+w5U2qQw/RXpj6nR84Ys3JFozh3SU9Os2+
zW4RtOtJPxM0yaoW4XBoHUFa1DmgzmBpS6/3/rFolw4B8VWRSeh/2jYppYx6ijig
HvQbvbB9SPLX2EfI8xaDwGRduHuUgSs1+AhLaRK+jLtYpHtEOi20rKBv5u/lJhNV
5jpWKFKCZ+L+FNTuTriaVLTWmzDCaXOE992Zgf/WCv1OTpOS+u06siwpQAz9Bqnn
qZdCej9Y2Mb2pbE9AE85RwLga0b4QbulacpfCc5SDwcUb8pQSX3ksBnpOsGJrPlo
tiVxGtUxN6z9hlMY9ibCsNYlXDPfR1TH1v+lX+jG3wIDAQABo10wWzAdBgNVHQ4E
FgQU4v0ISKkyiXQhgI/uHkU/pjAYwlEwHwYDVR0jBBgwFoAUxLqD+Pb1X7rpjl/7
ARpHr7q89+swDAYDVR0TBAUwAwEB/zALBgNVHQ8EBAMCAQYwDQYJKoZIhvcNAQEN
BQADggQBADPfKMNHNJT6Mio2Bik4zoyyyZyNVbPa202esm89nwN1Z6ydqOJveIfy
kcIYSRhiC20ScUjNby3s/vMzh6hL+LqxuVk97Vu0/rStLklkC/B6dqhE8Xfp289a
GrBzi/07FVu6Ilq5cx2ppkPt0JrSEwK3NvH65MhGTDorrLELBQGhjcV5pduD2Uor
NNR9FBxWAxGvW7DdKbZKIQC9/4ceUa5ysaxUEhWX+YUG7IoZYT39wbkkywL4CgIt
cqjknWgEQz57G6q3yJGJN0fJlDeCGy8tHrJwQ1F62sFOo/1necBV2QiFfchWmiHe
bQTELxUaIoFlCJ9j6bVrhTLz+VPm+6MBIDyrsigY2QeG4oeKM6/0M331XC4zdjBd
OvHV6A2mr/cQLEnSdrgleD0UY1aAnRAWaQWwJiypYlRuECM8SEkOXP1QESo4eYRJ
l0MaBq1Eit5qBhOJp8lrqtpQg15fABji/Pqo9827LJNFedIOga9zg8+QlMVF7oIA
Ht7c4EkwzKUUO81ex8gn+EUbq0/xV+Ww4uZkyc+fG2EZda1/orHhejIT+PehVOh+
p0NNdzrYKwwdVblYwFBV7Mpih7dGET5axwEn2WgreIZ0cxbcPCq832FZbi1M9FUi
JMFF1k47mG7uht2vdOXovHxTHn0YqzEITyqqPkdA4iZsK94u9y3OOG45rPRvK3NA
QVUP0Tgw+DhDJAFuimb8Uy81LCgQRxM0qSBJSrjZKyDy0eDhlymDBouPm7loLro3
+0b7TMxBEEg6XDVNKkBAjAwip6gVC/TrGW6clUiv/lVzljSQ6s+dyGz8AlEkCBxv
ilgE2ezeWl0TtUXhEw/UG4HR5VWFcDJdKqFX64J112dg9cqPkNK3nwnKkAzc4Ibo
CYwnh5O2N/IH93ur/rjek9tZLgdqvHaTOIGaL3A5vJPQBOrk8KxWKM+TjbL7P25/
mBmVzlOCYI5RLNVFvUz0EypqtpEY/owDLIsjl2+n5OJ7/nhqIEM1t0IInETehicK
cHJOVKnoPUeL9d1rUva69DgA9xClff1EF5lMNAHIfJYhGHxbwtcubv3EZRX1USDH
haXuSc7oyZpFO3YeMt+6UUn5pH9j421h1aTHnxmHVatFYsnpNOsPMHIaS7l5bjrv
uOdHnXCFDgTTi0Sba/uv8w1y8AZWemOy6jJAQNhp4EUEOw2bI43KpFrH0q3/9K7o
fZLlpJRyTCFkYksLsKUdDhuZZ2CMgiK7Y3FpeCwUUeMoZWN84nUry6W3+jqvd4fw
2FhI9CD41Im18jeYKfBKmhWSifg4k/1NQYvhPlQx/3o8Uq1ewwgFCQ4LKUDm7ChC
FeIWB+0Z0plEgYEZOt93hOWdXuVde7Q=
-----END CERTIFICATE-----
