Certificate:
    Data:
        Version: 3 (0x2)
        Serial Number: 19 (0x13)
    Signature Algorithm: sha512WithRSAEncryption
        Issuer: C=CA, ST=Ontario, L=Russell, O=MilleGrilles, OU=Signature, CN=dev2.maple.mdugre.info
        Validity
            Not Before: Aug 17 12:27:20 2019 GMT
            Not After : Aug  8 12:27:20 2021 GMT
        Subject: C=CA, ST=Ontario, L=Russell, O=MilleGrilles, OU=MilleGrille, CN=dev2
        Subject Public Key Info:
            Public Key Algorithm: rsaEncryption
                Public-Key: (4096 bit)
                Modulus:
                    00:92:e3:47:d6:43:cd:92:ab:a8:05:fe:fc:c4:1a:
                    0d:33:80:c1:58:e7:65:21:70:b2:d0:c6:52:94:92:
                    42:55:eb:a9:8c:47:38:d6:96:45:ae:99:a3:03:07:
                    91:91:eb:54:a7:30:a1:f5:52:dd:e5:69:e4:5c:da:
                    51:c2:3e:9d:17:5b:7b:e3:a8:b0:80:58:06:5b:31:
                    c4:5f:d5:a8:2f:f1:8e:6a:cb:94:43:23:37:66:89:
                    4f:11:96:fb:01:83:be:82:1a:b2:42:88:fb:eb:34:
                    89:8d:b0:11:95:34:11:e6:cb:a7:08:8e:21:a5:d1:
                    f7:2c:c1:74:b9:93:75:40:dc:f9:71:7e:2f:02:11:
                    28:65:86:ea:12:1f:6b:72:24:a6:7d:11:96:b7:64:
                    80:6d:e3:46:bd:23:b8:3e:6c:78:9f:8a:9d:f6:c2:
                    a5:a1:05:36:c2:07:5a:d0:a8:f7:52:25:e0:e8:08:
                    fb:86:46:6a:b2:6c:12:b7:2b:0d:a0:ba:1d:86:02:
                    e1:70:cc:9f:b6:4f:c6:97:c7:80:b9:1e:6e:2d:45:
                    c7:6f:d5:7e:3a:1d:f9:63:8d:5e:b7:42:52:97:1d:
                    df:6b:99:85:1c:76:60:01:da:c6:12:ee:5e:51:73:
                    e2:bd:26:c9:b6:50:4f:25:89:81:16:51:da:f6:14:
                    53:20:2f:a9:9e:22:1c:58:52:b4:42:6e:d3:82:d5:
                    08:6e:89:56:e6:99:f6:27:f8:af:4f:c7:62:79:d7:
                    65:ab:d1:28:15:3a:97:b6:ff:68:6f:11:5d:b6:8a:
                    c9:d2:47:61:50:ba:ec:0c:94:08:85:ca:61:bc:b2:
                    5c:8f:1f:96:6e:4b:2a:a8:95:e4:a9:be:21:6f:08:
                    b5:82:9a:f7:26:05:36:1d:2f:8e:b8:e1:87:23:7f:
                    fd:30:e3:8a:3b:1c:df:1b:35:7f:d8:b5:d6:af:ed:
                    6a:1c:69:5b:26:a0:48:13:34:41:fd:49:0d:e0:d6:
                    9d:c2:6d:11:56:a9:5c:82:79:32:4c:90:6d:1c:8a:
                    8a:9d:48:3b:61:5f:71:12:d4:3c:e3:c2:6b:3b:97:
                    cb:01:db:d8:69:63:ea:dc:d0:6b:e6:7b:80:29:3d:
                    39:76:8e:01:4f:61:63:0f:5d:c9:da:8a:59:8c:b9:
                    89:6e:14:09:9a:17:3f:cd:55:bf:fd:0b:ff:7b:83:
                    08:4b:a4:b6:74:cb:04:27:d2:c9:ed:ab:e3:bb:d1:
                    e5:3e:23:2e:a0:df:a7:37:57:37:7d:8d:a0:ff:cd:
                    76:e5:f6:66:2e:ac:64:95:ac:80:ac:4a:d8:5b:e1:
                    f1:36:52:b4:15:6d:31:84:32:05:01:16:d1:5d:51:
                    2d:66:27
                Exponent: 65537 (0x10001)
        X509v3 extensions:
            X509v3 Subject Key Identifier: 
                D6:35:BD:C6:97:60:C5:33:A7:6E:C8:7B:FD:1A:66:AE:DB:CF:D6:C4
            X509v3 Authority Key Identifier: 
                keyid:C4:BA:83:F8:F6:F5:5F:BA:E9:8E:5F:FB:01:1A:47:AF:BA:BC:F7:EB

            X509v3 Basic Constraints: 
                CA:TRUE
            X509v3 Key Usage: 
                Certificate Sign, CRL Sign
    Signature Algorithm: sha512WithRSAEncryption
         62:a1:be:ec:e3:bf:1b:28:5b:4d:d4:ae:9d:19:e8:d6:60:4e:
         03:57:0a:fe:ea:e4:10:8f:ca:5e:6f:75:6c:c4:d6:7e:71:1f:
         9d:74:2a:96:4f:c8:02:cb:e8:18:ea:3d:0e:d5:30:60:b1:c0:
         bf:95:b3:7c:d5:36:c0:b3:da:16:46:1b:57:a9:5d:49:0f:c6:
         02:e2:de:91:5b:6a:18:9f:e7:6a:83:e5:35:41:ba:e2:0c:7a:
         ac:61:73:21:b8:b3:38:1f:df:48:b5:54:52:14:43:0d:45:a5:
         cd:c4:43:b4:f3:e9:dd:6b:4b:fc:7b:34:97:bf:46:22:28:24:
         01:80:9c:70:52:b6:0f:7d:94:c0:a2:9c:cf:71:aa:c0:ea:46:
         48:66:35:ce:e6:11:09:da:cf:07:9f:28:bf:3b:c0:70:f5:34:
         f0:72:1a:7f:b6:7d:c9:e5:11:4d:92:85:b0:fd:59:1e:08:ac:
         c1:ef:7a:5f:92:ba:75:9b:b5:1e:81:2e:f1:fa:37:6d:49:49:
         75:00:a2:6b:96:e1:58:c7:f1:f1:ee:eb:ec:7f:09:79:97:1b:
         26:cb:3e:f3:7b:b2:54:39:36:7a:51:68:99:58:c2:71:6d:da:
         ec:6a:0b:bc:a5:9e:dc:9d:eb:06:43:0e:be:37:8b:39:45:8c:
         5c:a5:45:2d:b6:07:6c:02:84:cd:a9:e0:d4:b2:95:4e:be:fb:
         09:53:1e:39:66:6a:56:3c:32:8b:81:5e:bf:a2:c5:29:5f:81:
         ea:78:92:64:13:26:70:3d:52:56:ce:b0:62:3f:bc:ab:83:e1:
         81:0b:0e:fe:79:7a:00:93:84:6d:27:3e:9e:fc:19:de:34:06:
         1b:6c:1e:5f:da:ac:43:4a:b2:d0:d7:1a:98:11:ad:55:03:ca:
         82:ee:d0:fe:2e:92:7f:a6:64:e5:f0:71:9e:c6:93:1f:f4:c9:
         12:0e:20:2a:55:6f:e5:eb:e5:58:91:60:80:5d:ef:28:51:c1:
         97:43:a5:79:7c:ef:e7:11:58:98:28:5f:1f:e5:f7:a6:36:cc:
         40:57:ee:d9:b2:21:28:99:6d:9a:6e:08:f4:5a:1a:af:90:c8:
         55:17:ac:8c:d0:98:e2:4a:ba:99:1a:f8:42:79:44:f2:33:48:
         2a:79:c6:ed:68:40:53:0f:20:5e:90:a8:ea:3e:a4:25:97:34:
         91:89:ed:44:18:75:88:f8:f1:51:2d:90:a5:f2:8c:1d:97:76:
         03:77:17:28:d0:30:b5:51:d7:8a:bb:46:66:e3:d0:70:6f:11:
         1b:fb:a5:2a:a5:34:bf:a8:52:89:ab:92:78:fb:b3:fd:e6:45:
         f8:f0:6e:94:d0:4a:b2:52:3c:5b:f2:41:78:c7:af:44:ad:89:
         a1:ca:0d:c9:56:ec:65:fd:a8:ab:af:e0:5f:0b:43:b1:90:91:
         7e:cc:e6:ec:e8:d3:72:87:de:93:f3:7a:f2:7d:9f:cc:58:1d:
         c8:c6:20:75:0d:87:eb:cf:71:b3:3b:24:59:fb:6a:2b:b6:ef:
         bd:1a:8b:7c:24:1d:a0:5d:0d:4f:5a:c3:06:23:c8:2f:fd:d1:
         f0:38:83:21:d3:7b:ff:e5:09:57:53:49:97:37:cc:08:4d:23:
         3f:b1:c1:cc:d7:0a:c4:37:00:4c:b1:a1:af:f3:06:3e:47:6c:
         d7:b6:28:6a:93:98:92:6e:72:cd:77:d4:6b:94:29:9e:8d:44:
         0f:ab:7d:2f:26:b2:ef:87:10:a2:ec:12:59:06:04:a6:fc:9b:
         c2:5d:47:00:99:62:64:7f:99:9a:b2:a2:06:7e:ba:5d:3a:ab:
         12:c6:82:f2:43:12:8c:27:dc:13:4b:1e:4c:db:bb:48:c8:e6:
         43:d0:08:46:bb:97:09:73:3f:ef:41:49:84:ff:94:b6:45:33:
         bf:4f:f5:f1:9d:4f:c8:56:e8:5c:02:cd:5d:23:f6:ab:f8:40:
         ff:e9:67:54:dd:29:a5:17:2d:c6:3d:5c:18:17:5f:f2:24:0e:
         65:69:c4:ef:f4:b5:be:90:31:5b:c0:05:52:d9:0a:24:f6:90:
         dc:51:68:b4:d4:37:fb:84:92:4b:7a:8a:2b:3b:38:34:b9:f7:
         34:fd:d1:3b:fa:62:89:05:a5:0b:3b:66:89:5b:08:cc:01:48:
         f2:7d:fb:56:97:f1:6a:fa:72:dc:8f:69:67:b4:f7:bb:b0:f9:
         88:3c:43:20:5b:c0:51:a5:08:a5:fc:72:29:d8:66:98:67:21:
         20:5f:0d:3c:e4:ff:74:8e:9b:d6:62:76:6a:75:95:a1:b4:b4:
         61:7c:85:80:a1:4b:5d:7d:4b:19:64:ed:de:7f:65:77:30:29:
         6a:3a:34:b1:c5:83:12:b3:ba:f7:76:49:51:5a:3e:7f:96:de:
         a7:c3:d0:77:e7:e4:1c:53:80:94:81:fc:00:53:71:75:2a:bf:
         21:33:48:ea:34:bd:37:46:02:b8:2d:82:f0:6a:49:fd:db:d2:
         bd:83:ea:da:c0:dc:84:ad:6e:bf:5f:98:cd:71:1e:8f:7e:0f:
         6a:dc:55:7c:5e:60:b9:39:46:bf:03:2e:5d:31:da:e8:a7:bb:
         83:3c:78:bd:7d:95:a3:62:88:e6:00:2b:2c:4b:53:04:ec:e9:
         b2:ee:ff:76:94:b4:a7:aa:00:5d:f4:24:25:7d:fb:0d:1e:eb:
         45:bf:0f:6b:f1:8e:83:e9:38:07:3d:54:cf:ee:7d:b2
-----BEGIN CERTIFICATE-----
MIIHwjCCA6qgAwIBAgIBEzANBgkqhkiG9w0BAQ0FADB9MQswCQYDVQQGEwJDQTEQ
MA4GA1UECAwHT250YXJpbzEQMA4GA1UEBwwHUnVzc2VsbDEVMBMGA1UECgwMTWls
bGVHcmlsbGVzMRIwEAYDVQQLDAlTaWduYXR1cmUxHzAdBgNVBAMMFmRldjIubWFw
bGUubWR1Z3JlLmluZm8wHhcNMTkwODE3MTIyNzIwWhcNMjEwODA4MTIyNzIwWjBt
MQswCQYDVQQGEwJDQTEQMA4GA1UECAwHT250YXJpbzEQMA4GA1UEBwwHUnVzc2Vs
bDEVMBMGA1UECgwMTWlsbGVHcmlsbGVzMRQwEgYDVQQLDAtNaWxsZUdyaWxsZTEN
MAsGA1UEAwwEZGV2MjCCAiIwDQYJKoZIhvcNAQEBBQADggIPADCCAgoCggIBAJLj
R9ZDzZKrqAX+/MQaDTOAwVjnZSFwstDGUpSSQlXrqYxHONaWRa6ZowMHkZHrVKcw
ofVS3eVp5FzaUcI+nRdbe+OosIBYBlsxxF/VqC/xjmrLlEMjN2aJTxGW+wGDvoIa
skKI++s0iY2wEZU0EebLpwiOIaXR9yzBdLmTdUDc+XF+LwIRKGWG6hIfa3Ikpn0R
lrdkgG3jRr0juD5seJ+KnfbCpaEFNsIHWtCo91Il4OgI+4ZGarJsErcrDaC6HYYC
4XDMn7ZPxpfHgLkebi1Fx2/Vfjod+WONXrdCUpcd32uZhRx2YAHaxhLuXlFz4r0m
ybZQTyWJgRZR2vYUUyAvqZ4iHFhStEJu04LVCG6JVuaZ9if4r0/HYnnXZavRKBU6
l7b/aG8RXbaKydJHYVC67AyUCIXKYbyyXI8flm5LKqiV5Km+IW8ItYKa9yYFNh0v
jrjhhyN//TDjijsc3xs1f9i11q/tahxpWyagSBM0Qf1JDeDWncJtEVapXIJ5MkyQ
bRyKip1IO2FfcRLUPOPCazuXywHb2Glj6tzQa+Z7gCk9OXaOAU9hYw9dydqKWYy5
iW4UCZoXP81Vv/0L/3uDCEuktnTLBCfSye2r47vR5T4jLqDfpzdXN32NoP/NduX2
Zi6sZJWsgKxK2Fvh8TZStBVtMYQyBQEW0V1RLWYnAgMBAAGjXTBbMB0GA1UdDgQW
BBTWNb3Gl2DFM6duyHv9Gmau28/WxDAfBgNVHSMEGDAWgBTEuoP49vVfuumOX/sB
Gkevurz36zAMBgNVHRMEBTADAQH/MAsGA1UdDwQEAwIBBjANBgkqhkiG9w0BAQ0F
AAOCBAEAYqG+7OO/GyhbTdSunRno1mBOA1cK/urkEI/KXm91bMTWfnEfnXQqlk/I
AsvoGOo9DtUwYLHAv5WzfNU2wLPaFkYbV6ldSQ/GAuLekVtqGJ/naoPlNUG64gx6
rGFzIbizOB/fSLVUUhRDDUWlzcRDtPPp3WtL/Hs0l79GIigkAYCccFK2D32UwKKc
z3GqwOpGSGY1zuYRCdrPB58ovzvAcPU08HIaf7Z9yeURTZKFsP1ZHgiswe96X5K6
dZu1HoEu8fo3bUlJdQCia5bhWMfx8e7r7H8JeZcbJss+83uyVDk2elFomVjCcW3a
7GoLvKWe3J3rBkMOvjeLOUWMXKVFLbYHbAKEzang1LKVTr77CVMeOWZqVjwyi4Fe
v6LFKV+B6niSZBMmcD1SVs6wYj+8q4PhgQsO/nl6AJOEbSc+nvwZ3jQGG2weX9qs
Q0qy0NcamBGtVQPKgu7Q/i6Sf6Zk5fBxnsaTH/TJEg4gKlVv5evlWJFggF3vKFHB
l0OleXzv5xFYmChfH+X3pjbMQFfu2bIhKJltmm4I9Foar5DIVResjNCY4kq6mRr4
QnlE8jNIKnnG7WhAUw8gXpCo6j6kJZc0kYntRBh1iPjxUS2QpfKMHZd2A3cXKNAw
tVHXirtGZuPQcG8RG/ulKqU0v6hSiauSePuz/eZF+PBulNBKslI8W/JBeMevRK2J
ocoNyVbsZf2oq6/gXwtDsZCRfszm7OjTcofek/N68n2fzFgdyMYgdQ2H689xszsk
WftqK7bvvRqLfCQdoF0NT1rDBiPIL/3R8DiDIdN7/+UJV1NJlzfMCE0jP7HBzNcK
xDcATLGhr/MGPkds17YoapOYkm5yzXfUa5Qpno1ED6t9Lyay74cQouwSWQYEpvyb
wl1HAJliZH+ZmrKiBn66XTqrEsaC8kMSjCfcE0seTNu7SMjmQ9AIRruXCXM/70FJ
hP+UtkUzv0/18Z1PyFboXALNXSP2q/hA/+lnVN0ppRctxj1cGBdf8iQOZWnE7/S1
vpAxW8AFUtkKJPaQ3FFotNQ3+4SSS3qKKzs4NLn3NP3RO/piiQWlCztmiVsIzAFI
8n37Vpfxavpy3I9pZ7T3u7D5iDxDIFvAUaUIpfxyKdhmmGchIF8NPOT/dI6b1mJ2
anWVobS0YXyFgKFLXX1LGWTt3n9ldzApajo0scWDErO693ZJUVo+f5bep8PQd+fk
HFOAlIH8AFNxdSq/ITNI6jS9N0YCuC2C8GpJ/dvSvYPq2sDchK1uv1+YzXEej34P
atxVfF5guTlGvwMuXTHa6Ke7gzx4vX2Vo2KI5gArLEtTBOzpsu7/dpS0p6oAXfQk
JX37DR7rRb8Pa/GOg+k4Bz1Uz+59sg==
-----END CERTIFICATE-----
