Certificate:
    Data:
        Version: 3 (0x2)
        Serial Number: 20 (0x14)
    Signature Algorithm: sha512WithRSAEncryption
        Issuer: C=CA, ST=Ontario, L=Russell, O=MilleGrilles, OU=Signature, CN=dev2.maple.mdugre.info
        Validity
            Not Before: Aug 19 00:53:05 2019 GMT
            Not After : Aug 10 00:53:05 2021 GMT
        Subject: C=CA, ST=Ontario, L=Russell, O=MilleGrilles, OU=MilleGrille, CN=pivoine
        Subject Public Key Info:
            Public Key Algorithm: rsaEncryption
                Public-Key: (4096 bit)
                Modulus:
                    00:d9:f4:c9:2d:93:0f:51:9f:ea:a6:01:a0:4c:db:
                    7f:fc:7e:16:c8:77:7f:b1:73:45:bd:d9:63:42:e2:
                    b5:6a:16:05:21:6f:73:d8:36:20:e4:66:de:f2:81:
                    3b:46:ae:3e:2d:5c:1d:55:96:5b:6b:6f:95:26:18:
                    b1:f0:4b:b2:ed:2f:ff:2e:da:82:70:96:2d:e7:a5:
                    1d:c1:51:7d:a4:d4:cc:de:02:0b:5f:d6:eb:ff:98:
                    88:d4:5f:95:51:14:a6:45:88:e0:cd:a8:3f:ee:1d:
                    7f:1c:a1:0b:64:ae:a2:ca:cf:90:6a:1d:fe:ee:dc:
                    54:d8:7f:21:2c:8d:46:56:14:bd:40:c9:dc:9a:ce:
                    92:1a:fd:6a:37:1c:e3:e9:79:dd:78:fc:56:ad:94:
                    7d:d8:00:f4:88:82:8d:87:67:2a:41:e1:27:03:97:
                    87:fb:93:fa:78:25:5b:e0:9b:31:a6:1a:e1:e8:a0:
                    0d:bf:47:46:80:29:c1:7a:2c:5a:91:76:1c:e1:e9:
                    7a:48:ed:f5:3c:e9:6f:76:37:c1:7c:ad:31:32:5e:
                    49:6d:34:9a:7b:ba:93:86:ae:c9:53:7f:cd:5e:c4:
                    f9:4c:4e:66:3a:0f:69:f6:6d:c4:b0:2a:de:5a:c5:
                    d4:d9:67:74:fa:23:88:f9:fb:df:da:c8:57:b4:92:
                    45:b0:60:73:74:97:5d:e0:aa:16:4e:dc:be:8f:df:
                    2c:0c:a2:4d:06:fa:a3:56:a9:61:8a:bb:9d:d6:6c:
                    2b:7a:9b:cd:c6:57:61:9d:e2:3e:c3:86:2c:1c:da:
                    f3:87:2f:53:f0:e6:5b:2b:cd:84:a4:5a:5d:94:9b:
                    38:bc:d2:68:29:d9:34:31:e4:d5:cf:ed:e3:a7:a7:
                    d7:21:85:20:e8:b1:05:f9:7d:05:a3:1a:58:32:ad:
                    f6:e4:29:ca:f1:09:d5:90:a1:e2:ba:cc:33:92:cb:
                    d1:76:60:3b:36:f0:63:2f:15:89:a2:a5:08:e4:be:
                    75:3f:b4:82:31:1d:fb:a4:00:ed:d5:b8:1f:17:38:
                    86:b3:9f:e6:e6:d5:99:d7:a4:73:97:68:ea:7e:1b:
                    2a:4f:48:52:a8:91:b5:c0:77:a4:28:ef:d5:12:05:
                    d6:d3:69:96:60:8a:63:96:b8:fb:88:2c:6a:13:b4:
                    05:be:de:42:ae:c5:a2:11:0a:9b:22:2c:d7:99:74:
                    cc:6f:ac:13:9c:12:1d:3d:24:54:a9:fb:9d:6b:3c:
                    27:f3:36:96:e0:c9:11:90:7a:45:7d:a9:a8:3b:b4:
                    fb:c8:ca:64:1c:c7:d1:d1:db:b4:ec:65:72:7b:cd:
                    a3:fe:7b:ae:7e:fa:a1:21:8b:8b:fe:52:b8:16:51:
                    fd:f9:93
                Exponent: 65537 (0x10001)
        X509v3 extensions:
            X509v3 Subject Key Identifier: 
                23:D1:81:BC:D7:61:57:11:5E:65:AD:9E:8D:0F:13:82:D1:48:C9:1A
            X509v3 Authority Key Identifier: 
                keyid:C4:BA:83:F8:F6:F5:5F:BA:E9:8E:5F:FB:01:1A:47:AF:BA:BC:F7:EB

            X509v3 Basic Constraints: 
                CA:TRUE
            X509v3 Key Usage: 
                Certificate Sign, CRL Sign
    Signature Algorithm: sha512WithRSAEncryption
         2d:f9:e3:c0:fc:78:e1:f1:01:8b:6c:11:61:c6:4f:ea:44:39:
         4c:d0:fa:83:c5:b4:12:93:e0:47:0d:02:e6:de:b3:ef:6a:ea:
         97:81:08:db:8b:2d:2e:a5:d1:1f:38:9a:43:9f:f8:da:9d:26:
         db:7c:16:2f:3a:0f:a6:5d:54:09:af:c3:cf:1d:ac:62:9e:a2:
         32:60:fe:82:05:32:bc:b3:23:e4:1b:98:5e:96:fa:58:b8:7e:
         6d:b4:16:d1:7c:ce:ec:d0:77:0f:7f:af:3e:27:35:51:85:b0:
         ce:ba:3a:3e:41:b9:06:4c:49:7c:9b:4a:b6:cd:ed:46:ca:9a:
         3a:74:3c:65:2c:c0:db:a7:05:83:44:cb:ed:7d:28:95:06:1a:
         9c:29:ec:49:de:62:52:cb:e8:7f:1a:5a:b7:71:a6:70:d9:99:
         76:78:bd:6d:41:be:5f:8a:0d:4b:da:fb:16:96:dc:dc:e8:16:
         dc:23:ea:e7:a4:04:f5:f8:ab:6c:36:d0:38:69:3c:85:e0:b5:
         f8:c8:5a:48:28:51:6e:ef:2b:23:07:ba:de:13:0f:73:a5:14:
         8e:55:75:bc:6d:27:ab:49:8d:4f:8c:bd:43:52:83:fb:39:b0:
         81:52:f8:cc:83:d8:3d:ae:fc:fa:d5:02:5c:d6:3e:b7:08:07:
         76:11:19:37:32:da:3d:a4:49:7d:5d:98:59:43:70:b8:6e:4f:
         94:4d:38:7b:aa:54:ee:90:93:ec:d3:32:e7:f7:95:af:f8:c5:
         2b:2c:39:d2:6e:c6:ac:0f:c5:48:32:3d:e0:47:a4:5e:68:92:
         e9:e6:e7:ed:2c:71:8e:b0:45:bd:7f:b9:7d:47:bf:6b:90:a8:
         56:4e:93:49:df:1f:96:ed:46:b4:8b:e0:df:6d:11:2d:67:59:
         1d:c9:a3:16:76:5b:d3:d3:36:fd:a4:02:90:7b:82:77:53:ed:
         ff:fb:98:c2:9b:5f:9a:b4:34:d3:9e:5b:11:d3:0b:b0:b5:33:
         7b:29:51:92:f5:3d:ef:4a:4d:23:e8:dc:c4:f9:60:f7:da:18:
         70:e3:ab:fc:c1:28:fb:bd:38:50:5f:3f:23:64:58:9e:4a:24:
         26:6f:b4:bd:e1:1a:60:82:7d:d4:f5:42:f1:b4:70:d9:68:63:
         c9:8b:29:c0:24:00:eb:ea:72:3f:37:e6:66:76:87:fd:38:5f:
         df:53:78:f9:27:c9:6f:40:90:16:b3:93:bf:63:c7:b6:de:16:
         2e:66:ed:db:75:c4:fa:3f:c5:74:a9:6c:b6:b7:1b:22:c5:4f:
         ea:62:5c:3e:c1:75:0d:b5:69:37:66:04:e6:30:ac:e8:1a:9e:
         9b:93:ef:57:50:d4:36:6b:72:42:8b:33:f0:98:13:ea:4d:73:
         f9:53:20:15:d3:0f:87:76:91:13:bc:79:c5:78:8e:69:cf:db:
         3e:c3:e7:8f:c2:19:d7:b3:95:f4:e8:d2:68:4e:31:c6:af:5d:
         56:f2:92:40:b4:cc:e8:99:ce:fb:9c:79:32:3e:f8:a6:77:ed:
         a0:b5:c5:89:14:18:28:40:f9:d7:28:f4:1b:da:7a:a7:81:18:
         ff:16:23:64:22:49:91:6e:24:93:b5:a7:06:26:d8:4a:63:72:
         d2:d8:b9:33:28:9f:98:90:98:ee:39:96:6b:36:14:bd:e9:7d:
         97:fe:73:10:ba:14:ab:7a:4d:a2:82:d5:d4:ad:f1:64:0e:ab:
         9b:8c:09:d2:38:82:ee:1c:94:6f:96:42:06:bd:10:0c:e6:e1:
         bf:e4:bd:ce:ea:5e:3b:52:5e:b5:67:46:d2:53:61:9b:fb:05:
         70:12:7b:ce:c2:2a:a1:de:44:5f:76:3c:be:f4:c6:6f:fc:61:
         3c:a2:7c:87:92:82:fa:b7:4a:2f:cf:fe:de:7d:cf:0f:f4:e6:
         a5:fd:80:66:30:14:5a:e1:d2:f2:d1:3f:01:a3:45:a5:05:b3:
         49:f9:d1:c9:1c:a9:86:3d:d2:d4:a3:a6:f7:7f:e9:d8:d7:54:
         dd:c5:d0:7b:a5:96:df:a5:3e:13:e4:80:e6:ea:43:fe:17:8f:
         2f:df:93:dc:bd:5f:59:0d:67:40:7f:ec:fc:ee:1b:6e:11:1c:
         36:5d:61:40:61:c2:8d:79:c4:5e:cd:25:83:33:d4:5e:d8:20:
         44:c8:f4:9c:41:77:a4:0a:11:a6:fb:89:a9:2b:a5:75:24:ee:
         48:20:dd:8f:87:05:bc:bd:47:5a:49:a7:99:a0:f6:6b:d8:85:
         0f:ea:ea:a7:f6:e7:91:a2:15:1b:ec:d3:99:49:75:28:d4:3c:
         3b:cc:90:46:eb:28:ae:52:3e:64:a1:b9:d4:86:20:05:ff:8e:
         da:2b:3d:b0:3b:a4:4a:60:73:a1:3f:44:ae:ae:88:cb:cb:45:
         84:21:52:a8:40:03:95:f7:c8:be:af:d8:24:c0:ea:cd:50:70:
         47:b7:a4:26:1e:03:7d:55:8e:19:35:36:f1:c9:5b:ad:84:c8:
         8c:f9:5b:e9:31:ee:5a:11:17:e1:05:9f:b0:24:b5:07:25:f0:
         19:2f:b8:e0:e5:2d:d7:3f:10:28:86:89:74:92:00:98:99:17:
         a6:2b:4e:f7:8f:42:3f:13:85:19:7d:f8:b2:5a:de:e4:65:75:
         97:6d:52:49:c1:20:f0:cc:66:0e:e7:0f:13:95:01:e2:ff:50:
         1a:9a:d6:69:98:37:44:7d:e0:e1:cd:f3:60:08:f0:99
-----BEGIN CERTIFICATE-----
MIIHxTCCA62gAwIBAgIBFDANBgkqhkiG9w0BAQ0FADB9MQswCQYDVQQGEwJDQTEQ
MA4GA1UECAwHT250YXJpbzEQMA4GA1UEBwwHUnVzc2VsbDEVMBMGA1UECgwMTWls
bGVHcmlsbGVzMRIwEAYDVQQLDAlTaWduYXR1cmUxHzAdBgNVBAMMFmRldjIubWFw
bGUubWR1Z3JlLmluZm8wHhcNMTkwODE5MDA1MzA1WhcNMjEwODEwMDA1MzA1WjBw
MQswCQYDVQQGEwJDQTEQMA4GA1UECAwHT250YXJpbzEQMA4GA1UEBwwHUnVzc2Vs
bDEVMBMGA1UECgwMTWlsbGVHcmlsbGVzMRQwEgYDVQQLDAtNaWxsZUdyaWxsZTEQ
MA4GA1UEAwwHcGl2b2luZTCCAiIwDQYJKoZIhvcNAQEBBQADggIPADCCAgoCggIB
ANn0yS2TD1Gf6qYBoEzbf/x+Fsh3f7FzRb3ZY0LitWoWBSFvc9g2IORm3vKBO0au
Pi1cHVWWW2tvlSYYsfBLsu0v/y7agnCWLeelHcFRfaTUzN4CC1/W6/+YiNRflVEU
pkWI4M2oP+4dfxyhC2SuosrPkGod/u7cVNh/ISyNRlYUvUDJ3JrOkhr9ajcc4+l5
3Xj8Vq2UfdgA9IiCjYdnKkHhJwOXh/uT+nglW+CbMaYa4eigDb9HRoApwXosWpF2
HOHpekjt9Tzpb3Y3wXytMTJeSW00mnu6k4auyVN/zV7E+UxOZjoPafZtxLAq3lrF
1NlndPojiPn739rIV7SSRbBgc3SXXeCqFk7cvo/fLAyiTQb6o1apYYq7ndZsK3qb
zcZXYZ3iPsOGLBza84cvU/DmWyvNhKRaXZSbOLzSaCnZNDHk1c/t46en1yGFIOix
Bfl9BaMaWDKt9uQpyvEJ1ZCh4rrMM5LL0XZgOzbwYy8ViaKlCOS+dT+0gjEd+6QA
7dW4Hxc4hrOf5ubVmdekc5do6n4bKk9IUqiRtcB3pCjv1RIF1tNplmCKY5a4+4gs
ahO0Bb7eQq7FohEKmyIs15l0zG+sE5wSHT0kVKn7nWs8J/M2luDJEZB6RX2pqDu0
+8jKZBzH0dHbtOxlcnvNo/57rn76oSGLi/5SuBZR/fmTAgMBAAGjXTBbMB0GA1Ud
DgQWBBQj0YG812FXEV5lrZ6NDxOC0UjJGjAfBgNVHSMEGDAWgBTEuoP49vVfuumO
X/sBGkevurz36zAMBgNVHRMEBTADAQH/MAsGA1UdDwQEAwIBBjANBgkqhkiG9w0B
AQ0FAAOCBAEALfnjwPx44fEBi2wRYcZP6kQ5TND6g8W0EpPgRw0C5t6z72rql4EI
24stLqXRHziaQ5/42p0m23wWLzoPpl1UCa/Dzx2sYp6iMmD+ggUyvLMj5BuYXpb6
WLh+bbQW0XzO7NB3D3+vPic1UYWwzro6PkG5BkxJfJtKts3tRsqaOnQ8ZSzA26cF
g0TL7X0olQYanCnsSd5iUsvofxpat3GmcNmZdni9bUG+X4oNS9r7Fpbc3OgW3CPq
56QE9firbDbQOGk8heC1+MhaSChRbu8rIwe63hMPc6UUjlV1vG0nq0mNT4y9Q1KD
+zmwgVL4zIPYPa78+tUCXNY+twgHdhEZNzLaPaRJfV2YWUNwuG5PlE04e6pU7pCT
7NMy5/eVr/jFKyw50m7GrA/FSDI94EekXmiS6ebn7SxxjrBFvX+5fUe/a5CoVk6T
Sd8flu1GtIvg320RLWdZHcmjFnZb09M2/aQCkHuCd1Pt//uYwptfmrQ0055bEdML
sLUzeylRkvU970pNI+jcxPlg99oYcOOr/MEo+704UF8/I2RYnkokJm+0veEaYIJ9
1PVC8bRw2WhjyYspwCQA6+pyPzfmZnaH/Thf31N4+SfJb0CQFrOTv2PHtt4WLmbt
23XE+j/FdKlstrcbIsVP6mJcPsF1DbVpN2YE5jCs6Bqem5PvV1DUNmtyQosz8JgT
6k1z+VMgFdMPh3aRE7x5xXiOac/bPsPnj8IZ17OV9OjSaE4xxq9dVvKSQLTM6JnO
+5x5Mj74pnftoLXFiRQYKED51yj0G9p6p4EY/xYjZCJJkW4kk7WnBibYSmNy0ti5
MyifmJCY7jmWazYUvel9l/5zELoUq3pNooLV1K3xZA6rm4wJ0jiC7hyUb5ZCBr0Q
DObhv+S9zupeO1JetWdG0lNhm/sFcBJ7zsIqod5EX3Y8vvTGb/xhPKJ8h5KC+rdK
L8/+3n3PD/Tmpf2AZjAUWuHS8tE/AaNFpQWzSfnRyRyphj3S1KOm93/p2NdU3cXQ
e6WW36U+E+SA5upD/hePL9+T3L1fWQ1nQH/s/O4bbhEcNl1hQGHCjXnEXs0lgzPU
XtggRMj0nEF3pAoRpvuJqSuldSTuSCDdj4cFvL1HWkmnmaD2a9iFD+rqp/bnkaIV
G+zTmUl1KNQ8O8yQRusorlI+ZKG51IYgBf+O2is9sDukSmBzoT9Erq6Iy8tFhCFS
qEADlffIvq/YJMDqzVBwR7ekJh4DfVWOGTU28clbrYTIjPlb6THuWhEX4QWfsCS1
ByXwGS+44OUt1z8QKIaJdJIAmJkXpitO949CPxOFGX34slre5GV1l21SScEg8Mxm
DucPE5UB4v9QGprWaZg3RH3g4c3zYAjwmQ==
-----END CERTIFICATE-----
