Certificate:
    Data:
        Version: 3 (0x2)
        Serial Number: 2 (0x2)
    Signature Algorithm: sha512WithRSAEncryption
        Issuer: C=CA, ST=Quebec, L=NDMontCarmel, O=pivoine, OU=MilleGrille, CN=pivoine.millegrilles.mdugre.info
        Validity
            Not Before: Jun  5 16:25:23 2019 GMT
            Not After : Jun  5 16:25:23 2020 GMT
        Subject: C=CA, ST=Quebec, L=NDMontCarmel, O=pivoine, OU=Noeud, CN=ns1.pivoine.mdugre.info
        Subject Public Key Info:
            Public Key Algorithm: rsaEncryption
                Public-Key: (4096 bit)
                Modulus:
                    00:eb:b6:15:5d:c4:84:3b:03:74:25:e2:24:ba:48:
                    23:63:15:c2:2c:c9:5c:66:dd:b1:08:a6:f3:1c:9b:
                    99:21:05:84:66:65:da:25:c3:de:40:43:21:4a:9c:
                    df:53:2d:a1:e1:de:98:a0:30:8f:1e:03:28:ed:2d:
                    c8:66:b8:4a:79:1a:0b:d4:91:1f:ea:a5:18:31:11:
                    8f:c6:ba:f4:e4:f9:7b:e7:e1:30:12:b1:b3:03:bc:
                    1c:6d:26:30:c5:23:16:df:ba:83:11:ad:12:cc:e6:
                    10:69:57:b3:83:87:bf:b8:d6:4d:24:0e:ca:b1:da:
                    31:18:7b:18:3e:bf:61:e1:c9:e4:b7:eb:0c:84:55:
                    37:fb:22:37:d1:10:78:7d:14:43:82:e1:72:ac:e6:
                    53:5d:d8:b6:f1:69:a1:b3:96:2d:99:18:30:66:30:
                    0a:52:48:c2:4c:fb:2e:2e:d8:e3:ce:88:d1:3a:a9:
                    7f:de:e0:ea:66:a2:a1:33:45:a3:8e:5d:f5:8d:a6:
                    ab:8f:37:f9:cc:a7:f0:4b:1f:b4:a1:09:22:54:96:
                    d8:63:85:9d:3b:e4:7a:cc:c2:d0:a4:28:a2:47:3e:
                    9a:fb:8c:a4:e9:30:be:bc:6e:1e:e7:42:87:24:a2:
                    fa:03:c6:97:23:77:fd:0c:71:16:d8:44:c1:fc:76:
                    f7:79:56:49:fa:6f:38:51:89:cf:1b:2a:ef:48:97:
                    17:a8:25:3c:84:d0:1a:3e:41:cf:78:2f:f7:90:93:
                    0b:a8:f2:ce:31:e0:08:7d:13:1a:fb:67:81:d3:0c:
                    af:a1:1b:f7:e2:d5:df:73:11:e0:f6:65:4e:6b:b3:
                    34:a0:85:35:ff:9b:76:fe:ac:b6:98:4c:a0:a9:a4:
                    c8:b8:9f:e6:c2:b8:21:30:4f:55:ec:a3:05:3e:e5:
                    17:e8:dc:1e:11:4d:ff:a6:bd:3f:74:8a:e0:c1:0d:
                    53:ea:fb:af:de:a3:5c:a6:ab:93:8a:66:29:0e:f4:
                    3a:11:bb:8d:30:e7:48:33:16:33:cc:dc:cd:35:e1:
                    f2:85:d1:4e:aa:51:b7:db:75:25:67:73:cc:a1:02:
                    41:69:9e:05:9a:ce:15:d5:14:8f:b5:44:82:1a:99:
                    22:b3:30:cf:e7:2a:d3:54:90:52:8a:b7:4e:ab:f7:
                    ce:86:4e:69:3d:b4:e5:72:a0:97:7b:48:fe:79:94:
                    a2:8d:bc:48:12:9a:1e:ed:a0:70:9b:4f:40:92:b0:
                    4e:5e:71:4d:5a:f2:6a:1a:a2:e4:fa:e0:78:b0:6a:
                    e2:cd:0a:ca:27:ee:dc:e5:c1:10:d0:29:58:56:fd:
                    51:6c:ae:98:bf:70:f6:92:b2:26:82:4f:76:9d:08:
                    a8:99:c3
                Exponent: 65537 (0x10001)
        X509v3 extensions:
            X509v3 Subject Key Identifier: 
                88:E0:DB:78:34:63:BE:20:52:EF:B5:52:2D:C8:37:E6:B5:A5:E9:B8
            X509v3 Authority Key Identifier: 
                keyid:B5:B1:53:E0:20:6C:96:45:7B:29:10:4C:13:B6:7A:13:3A:09:10:29

            X509v3 Basic Constraints: 
                CA:FALSE
            X509v3 Key Usage: 
                Digital Signature, Key Encipherment
            X509v3 Subject Alternative Name: 
                DNS:ns1.pivoine.mdugre.info
            Netscape Comment: 
                OpenSSL Generated Certificate
    Signature Algorithm: sha512WithRSAEncryption
         4c:42:50:91:70:58:cf:08:63:a4:34:39:72:f2:e4:e4:68:31:
         0d:15:1d:82:ff:d1:19:8b:34:61:c0:fe:07:5b:61:79:98:34:
         7b:6a:e4:1a:e4:7b:d5:cb:43:1d:b2:b8:98:3d:59:73:08:c0:
         14:00:f0:eb:3d:fe:f3:fe:89:c6:94:cd:5c:cf:b2:4d:71:9e:
         9e:07:df:04:97:46:2e:41:67:8d:3e:c1:ab:6b:3f:aa:bb:d6:
         0e:75:6b:db:d7:63:0c:36:0b:ff:06:ea:c0:6b:49:93:83:c1:
         53:1c:fe:27:3b:3c:51:a8:e0:88:ce:d9:65:28:45:23:28:99:
         02:69:25:d0:c9:a0:65:e9:3f:06:3e:f9:67:d9:83:36:44:48:
         0d:f0:70:89:45:24:26:00:0e:c2:a9:e5:a5:7c:cb:7b:3c:13:
         49:f3:f8:ce:41:fb:90:0e:44:ca:cf:e0:e4:ff:6a:c8:5c:94:
         21:ae:59:cf:f4:4e:50:d4:13:29:46:28:ed:1e:be:7d:f7:58:
         d1:8a:9c:00:74:d8:6d:f3:90:7e:87:65:a0:14:e6:af:a4:13:
         06:5f:80:ac:bd:5a:95:5c:3a:fe:af:bb:90:42:72:ed:ec:1c:
         24:a8:d4:a1:c4:3b:32:3e:de:3c:aa:5b:ab:0d:d3:1e:c9:4e:
         5e:f7:4d:18:55:b9:33:0d:4a:74:5f:c9:39:f2:e2:44:c9:b8:
         43:77:a4:c3:2c:2b:45:dd:a2:ce:24:1b:d7:7e:b4:93:8b:06:
         24:cb:c7:25:a6:38:95:86:19:36:61:83:1b:7c:6f:72:94:d4:
         a4:d3:b8:60:46:e7:5b:87:c1:c8:f8:8a:6a:60:91:e1:04:f5:
         33:ac:f6:4e:11:4e:77:7e:33:43:67:f3:3f:88:c0:50:fe:85:
         c8:2d:2d:3d:e1:fe:45:b5:bd:90:cb:7f:8f:de:ec:b2:97:4a:
         2c:a5:54:60:fa:8a:10:e9:bd:0a:fe:dd:34:eb:48:6c:82:3c:
         06:c0:05:45:9a:5a:4c:f7:b5:8b:0f:c4:d8:ad:d7:95:17:93:
         e1:fd:ea:35:b7:8c:bf:7e:75:e0:2f:a6:07:24:e7:c8:be:18:
         b1:27:69:22:47:12:a6:b1:d4:43:16:7e:87:90:5c:f6:ac:a8:
         36:3b:6f:27:50:41:c8:68:3e:3f:7d:f8:bf:9d:87:7b:27:28:
         f6:ea:c3:5a:ff:00:54:56:a3:26:87:43:f8:a5:15:5c:1e:af:
         21:e3:43:10:5c:7b:d6:38:40:5b:db:30:48:9f:60:21:14:dd:
         50:49:4a:c3:f0:b4:48:77:40:dd:42:0f:d7:92:fa:90:10:de:
         f4:c4:25:2b:7d:cd:08:ea:9d:49:49:a3:f0:c3:fe:41:66:f5:
         48:87:8c:a5:56:bf:29:ce:57:07:62:c7:05:89:8b:f0:82:0b:
         ed:ce:01:80:bd:3b:b9:41:1a:60:2b:5b:b6:96:2e:cf:8a:57:
         99:55:06:5b:f8:12:a5:ad:90:ab:47:ca:f3:33:b5:60:b2:dc:
         a6:5d:ba:d1:19:9d:94:67:eb:ba:0a:0b:5c:18:3e:3d:a2:48:
         0c:ff:7c:55:14:37:e3:dc:61:0c:d2:b2:31:96:fe:94:f1:ff:
         f8:d7:95:c7:d4:0f:bb:86:34:1e:9d:48:a1:f0:aa:79:b8:ad:
         d2:50:41:67:7d:4d:7d:a9:e7:8b:87:93:d4:af:37:09:b6:ba:
         c2:30:cd:cf:04:6a:3c:06:0c:91:47:d9:80:85:63:16:db:67:
         33:d1:f7:7b:6c:dd:9f:2c:1e:ea:6e:0e:a1:fc:2b:21:72:bd:
         d5:99:0d:e3:de:61:43:b5:52:e2:b4:ca:10:89:9d:8c:51:73:
         d7:04:fe:87:94:15:79:fc:01:0b:cf:1b:40:8d:3b:96:04:a3:
         f9:c1:39:6c:19:0b:c7:24:b5:a6:f8:17:9c:b7:90:bb:77:e9:
         f7:97:79:c8:35:c6:79:01:00:b3:fa:e6:da:1e:e3:aa:94:08:
         cf:1f:3b:fd:5d:44:6b:a3:c1:26:51:32:fe:99:58:e3:00:0d:
         d9:df:31:68:91:01:b2:85:0a:f0:eb:88:05:0d:7e:f0:d0:47:
         4c:5c:2d:51:e2:0f:01:9e:07:a8:b2:07:56:a4:3b:e2:f0:bd:
         74:e2:6a:df:1d:ae:99:7b:de:5c:ed:f8:df:3e:29:dd:14:61:
         4b:b9:03:fe:1e:a7:87:17:4e:99:0b:68:76:48:ba:04:c1:ba:
         e2:9e:42:0c:d2:c7:75:9b:ef:f3:6d:19:3d:3a:63:7f:dd:12:
         72:ba:18:a1:da:a1:c9:e3:26:36:ee:0d:97:82:60:27:59:96:
         51:61:03:67:41:9c:57:f9:66:3a:b0:0a:30:71:9b:ce:0d:f5:
         88:8b:06:a8:f3:8e:dd:5b:41:ae:4b:d1:93:94:e6:ea:4e:3d:
         5f:6e:74:90:14:42:8e:39:f8:49:c0:fc:25:f3:31:f7:6e:36:
         b6:75:b4:30:2d:a8:bd:b7:4a:a1:a6:06:ce:e9:54:cb:9b:6b:
         13:d1:91:48:23:b3:37:65:6e:2d:2a:d6:17:73:1b:e0:27:27:
         90:0d:ae:7a:4b:90:18:68:d3:3d:4e:f9:17:e2:83:ca:4d:78:
         e5:f3:e5:06:54:9d:ef:e0:62:2b:cb:e5:33:b5:ed:d6:ee:c7:
         d7:90:e4:f3:e6:0a:49:b0:00:1a:08:18:e4:85:e2:52
-----BEGIN CERTIFICATE-----
MIIIKzCCBBOgAwIBAgIBAjANBgkqhkiG9w0BAQ0FADCBiDELMAkGA1UEBhMCQ0Ex
DzANBgNVBAgMBlF1ZWJlYzEVMBMGA1UEBwwMTkRNb250Q2FybWVsMRAwDgYDVQQK
DAdwaXZvaW5lMRQwEgYDVQQLDAtNaWxsZUdyaWxsZTEpMCcGA1UEAwwgcGl2b2lu
ZS5taWxsZWdyaWxsZXMubWR1Z3JlLmluZm8wHhcNMTkwNjA1MTYyNTIzWhcNMjAw
NjA1MTYyNTIzWjB5MQswCQYDVQQGEwJDQTEPMA0GA1UECAwGUXVlYmVjMRUwEwYD
VQQHDAxORE1vbnRDYXJtZWwxEDAOBgNVBAoMB3Bpdm9pbmUxDjAMBgNVBAsMBU5v
ZXVkMSAwHgYDVQQDDBduczEucGl2b2luZS5tZHVncmUuaW5mbzCCAiIwDQYJKoZI
hvcNAQEBBQADggIPADCCAgoCggIBAOu2FV3EhDsDdCXiJLpII2MVwizJXGbdsQim
8xybmSEFhGZl2iXD3kBDIUqc31MtoeHemKAwjx4DKO0tyGa4SnkaC9SRH+qlGDER
j8a69OT5e+fhMBKxswO8HG0mMMUjFt+6gxGtEszmEGlXs4OHv7jWTSQOyrHaMRh7
GD6/YeHJ5LfrDIRVN/siN9EQeH0UQ4LhcqzmU13YtvFpobOWLZkYMGYwClJIwkz7
Li7Y486I0Tqpf97g6maioTNFo45d9Y2mq483+cyn8EsftKEJIlSW2GOFnTvkeszC
0KQookc+mvuMpOkwvrxuHudChySi+gPGlyN3/QxxFthEwfx293lWSfpvOFGJzxsq
70iXF6glPITQGj5Bz3gv95CTC6jyzjHgCH0TGvtngdMMr6Eb9+LV33MR4PZlTmuz
NKCFNf+bdv6stphMoKmkyLif5sK4ITBPVeyjBT7lF+jcHhFN/6a9P3SK4MENU+r7
r96jXKark4pmKQ70OhG7jTDnSDMWM8zczTXh8oXRTqpRt9t1JWdzzKECQWmeBZrO
FdUUj7VEghqZIrMwz+cq01SQUoq3Tqv3zoZOaT205XKgl3tI/nmUoo28SBKaHu2g
cJtPQJKwTl5xTVryahqi5PrgeLBq4s0Kyifu3OXBENApWFb9UWyumL9w9pKyJoJP
dp0IqJnDAgMBAAGjga0wgaowHQYDVR0OBBYEFIjg23g0Y74gUu+1Ui3IN+a1pem4
MB8GA1UdIwQYMBaAFLWxU+AgbJZFeykQTBO2ehM6CRApMAkGA1UdEwQCMAAwCwYD
VR0PBAQDAgWgMCIGA1UdEQQbMBmCF25zMS5waXZvaW5lLm1kdWdyZS5pbmZvMCwG
CWCGSAGG+EIBDQQfFh1PcGVuU1NMIEdlbmVyYXRlZCBDZXJ0aWZpY2F0ZTANBgkq
hkiG9w0BAQ0FAAOCBAEATEJQkXBYzwhjpDQ5cvLk5GgxDRUdgv/RGYs0YcD+B1th
eZg0e2rkGuR71ctDHbK4mD1ZcwjAFADw6z3+8/6JxpTNXM+yTXGengffBJdGLkFn
jT7Bq2s/qrvWDnVr29djDDYL/wbqwGtJk4PBUxz+Jzs8UajgiM7ZZShFIyiZAmkl
0MmgZek/Bj75Z9mDNkRIDfBwiUUkJgAOwqnlpXzLezwTSfP4zkH7kA5Eys/g5P9q
yFyUIa5Zz/ROUNQTKUYo7R6+ffdY0YqcAHTYbfOQfodloBTmr6QTBl+ArL1alVw6
/q+7kEJy7ewcJKjUocQ7Mj7ePKpbqw3THslOXvdNGFW5Mw1KdF/JOfLiRMm4Q3ek
wywrRd2iziQb1360k4sGJMvHJaY4lYYZNmGDG3xvcpTUpNO4YEbnW4fByPiKamCR
4QT1M6z2ThFOd34zQ2fzP4jAUP6FyC0tPeH+RbW9kMt/j97sspdKLKVUYPqKEOm9
Cv7dNOtIbII8BsAFRZpaTPe1iw/E2K3XlReT4f3qNbeMv3514C+mByTnyL4YsSdp
IkcSprHUQxZ+h5Bc9qyoNjtvJ1BByGg+P334v52Heyco9urDWv8AVFajJodD+KUV
XB6vIeNDEFx71jhAW9swSJ9gIRTdUElKw/C0SHdA3UIP15L6kBDe9MQlK33NCOqd
SUmj8MP+QWb1SIeMpVa/Kc5XB2LHBYmL8IIL7c4BgL07uUEaYCtbtpYuz4pXmVUG
W/gSpa2Qq0fK8zO1YLLcpl260RmdlGfrugoLXBg+PaJIDP98VRQ349xhDNKyMZb+
lPH/+NeVx9QPu4Y0Hp1IofCqebit0lBBZ31Nfanni4eT1K83Cba6wjDNzwRqPAYM
kUfZgIVjFttnM9H3e2zdnywe6m4OofwrIXK91ZkN495hQ7VS4rTKEImdjFFz1wT+
h5QVefwBC88bQI07lgSj+cE5bBkLxyS1pvgXnLeQu3fp95d5yDXGeQEAs/rm2h7j
qpQIzx87/V1Ea6PBJlEy/plY4wAN2d8xaJEBsoUK8OuIBQ1+8NBHTFwtUeIPAZ4H
qLIHVqQ74vC9dOJq3x2umXveXO343z4p3RRhS7kD/h6nhxdOmQtodki6BMG64p5C
DNLHdZvv820ZPTpjf90ScroYodqhyeMmNu4Nl4JgJ1mWUWEDZ0GcV/lmOrAKMHGb
zg31iIsGqPOO3VtBrkvRk5Tm6k49X250kBRCjjn4ScD8JfMx9242tnW0MC2ovbdK
oaYGzulUy5trE9GRSCOzN2VuLSrWF3Mb4CcnkA2uekuQGGjTPU75F+KDyk145fPl
BlSd7+BiK8vlM7Xt1u7H15Dk8+YKSbAAGggY5IXiUg==
-----END CERTIFICATE-----
