Certificate:
    Data:
        Version: 3 (0x2)
        Serial Number: 3 (0x3)
    Signature Algorithm: sha512WithRSAEncryption
        Issuer: C=CA, ST=Quebec, L=NDMontCarmel, O=pivoine, OU=MilleGrille, CN=pivoine.millegrilles.mdugre.info
        Validity
            Not Before: Jun  5 17:36:19 2019 GMT
            Not After : Jun  5 17:36:19 2020 GMT
        Subject: C=CA, ST=Quebec, L=NDMontCarmel, O=pivoine, OU=Noeud, CN=ns1.pivoine.mdugre.info
        Subject Public Key Info:
            Public Key Algorithm: rsaEncryption
                Public-Key: (4096 bit)
                Modulus:
                    00:cb:db:e1:7d:cc:d6:82:81:ed:6d:66:d9:0a:d7:
                    1f:11:e9:e4:09:c2:d6:51:cc:da:92:50:fe:7b:d9:
                    76:2b:5e:1b:53:c2:b1:8e:4b:cc:73:57:49:b3:1c:
                    6e:cc:4e:b7:ad:06:f2:29:1b:1e:bf:af:2a:86:d6:
                    53:54:a0:35:cd:f6:8b:ea:d8:af:bc:50:87:bf:b4:
                    bd:b9:bb:3c:c7:9c:41:52:2b:26:62:1d:3e:04:14:
                    b5:69:79:19:2a:4b:b9:74:fd:14:df:39:4b:5f:44:
                    c2:4d:78:0f:34:c3:96:52:87:cb:d5:ce:84:6e:34:
                    6f:94:ff:f3:85:03:36:89:86:5b:61:f1:7c:38:86:
                    61:93:ed:b2:d0:6b:e9:c6:0d:38:33:34:79:b9:fc:
                    8a:d0:dc:4a:41:47:82:0b:88:c5:1a:31:cf:03:9b:
                    36:15:5b:23:e2:77:fe:ae:db:63:24:de:7e:6f:35:
                    e5:42:b7:a5:09:f5:dd:2b:ae:41:a7:01:79:21:43:
                    05:1b:5e:3a:28:b1:cb:b6:2e:2b:90:cd:16:59:25:
                    13:f6:f3:e4:dc:c0:22:d7:61:88:2e:de:0f:98:0e:
                    16:54:e3:14:a0:b2:73:ee:07:0b:8f:0a:12:c1:45:
                    50:89:74:26:7c:e4:0d:36:a2:ba:00:e5:7c:c0:5c:
                    5d:d7:91:7a:ca:8f:b2:7d:bb:0f:3d:b4:3c:af:00:
                    cf:e2:fe:6e:aa:c5:9e:43:2d:5b:36:30:6b:a4:ef:
                    60:cd:ff:3b:be:b4:66:c5:fd:4e:41:ec:66:c9:d5:
                    bc:61:36:cd:26:d0:c4:4f:8c:07:05:ed:21:6e:b8:
                    71:39:68:56:5c:e1:ef:95:09:3f:58:e4:6f:30:77:
                    9a:99:13:87:63:36:36:42:b0:71:fd:4c:ce:6c:1c:
                    a8:db:57:2a:4f:58:85:ed:5b:25:be:df:37:a6:85:
                    36:de:63:33:bf:61:1d:a8:02:b9:bb:e0:26:7a:03:
                    bc:ab:17:af:23:9d:f5:09:e0:db:e8:b1:9b:4f:af:
                    13:55:78:f0:5f:bf:93:b4:01:8d:de:09:5b:90:d6:
                    f1:75:ea:d7:b0:94:23:fb:3b:14:12:85:3b:d1:fe:
                    ba:8e:86:55:e7:32:2e:fe:34:f4:60:df:57:e5:76:
                    24:12:30:b2:d0:53:31:80:0a:de:f7:81:de:80:86:
                    a8:77:b2:ec:30:36:d7:dd:2c:d9:e3:16:b4:7f:7b:
                    8e:e6:34:7e:33:6b:7f:33:35:95:5c:50:0f:b1:13:
                    7c:a5:56:0c:de:e4:a3:b6:fe:f2:d4:ca:76:57:4d:
                    07:7f:d2:20:fa:1c:0c:15:ce:21:fc:cc:d4:28:c2:
                    33:8b:27
                Exponent: 65537 (0x10001)
        X509v3 extensions:
            X509v3 Subject Key Identifier: 
                AA:99:D0:18:B5:8B:CF:7F:12:27:B4:A0:E3:D8:3D:04:A3:FA:DF:AD
            X509v3 Authority Key Identifier: 
                keyid:B5:B1:53:E0:20:6C:96:45:7B:29:10:4C:13:B6:7A:13:3A:09:10:29

            X509v3 Basic Constraints: 
                CA:FALSE
            X509v3 Key Usage: 
                Digital Signature, Key Encipherment
            X509v3 Subject Alternative Name: 
                DNS:ns1.pivoine.mdugre.info
            Netscape Comment: 
                OpenSSL Generated Certificate
    Signature Algorithm: sha512WithRSAEncryption
         63:7a:db:ac:01:6b:b7:b1:94:37:92:03:6c:4a:b2:b2:7b:bd:
         48:37:61:9e:31:cb:e9:95:49:b3:d1:00:bd:54:cc:21:34:40:
         3b:42:e4:bb:53:3d:40:7a:e8:39:ac:54:79:ae:00:08:1e:93:
         91:e0:fe:4e:1a:5c:e8:3e:45:54:0e:3c:12:bb:eb:3f:69:78:
         51:29:16:55:4f:ed:70:59:cf:54:e5:f8:2d:d3:0a:5d:c4:3a:
         1c:ad:a1:aa:64:9c:88:7e:41:c1:53:af:c9:97:fb:78:66:d8:
         8d:82:48:db:10:a9:35:8e:36:0a:f1:4c:b1:9a:6a:ee:39:67:
         c9:f4:0b:9b:34:16:8d:fb:59:76:5f:6e:93:5e:ca:8c:3a:a9:
         48:13:93:39:84:3b:f9:12:3a:d0:11:85:75:09:9f:2e:dc:25:
         e4:2b:36:77:80:9b:76:53:93:a0:f2:2f:41:60:83:52:f8:27:
         74:16:d7:ab:1b:19:9f:fd:e1:ef:25:94:8f:98:67:74:24:7d:
         99:b0:28:3b:64:2a:57:35:5e:50:3d:2d:b0:f7:40:5a:bc:22:
         5c:05:0f:2e:ed:b6:87:fc:35:2b:59:d4:43:2c:45:52:79:19:
         ea:e9:82:de:59:ef:80:c0:69:1d:09:3d:cc:76:72:35:82:88:
         ec:3b:b8:d0:de:e6:db:00:81:da:29:7e:a2:8e:a6:a6:e0:19:
         54:42:ca:bf:f8:84:87:a9:f5:76:15:ec:5e:a7:e9:fa:41:78:
         45:2f:56:ee:d4:53:d2:79:40:0f:69:95:8b:2a:3a:24:35:1a:
         fa:58:ea:45:80:a3:77:18:5d:1c:3c:a6:3a:9f:66:c1:b2:59:
         71:e9:f9:7c:05:cd:99:b6:6e:c3:ec:95:e5:02:a4:61:8e:ad:
         33:38:79:3a:be:25:db:5f:8a:f3:9e:fa:ba:60:df:ff:93:43:
         86:7a:9f:a1:ba:7d:de:62:86:96:f7:aa:75:07:0f:64:45:07:
         f4:be:2f:46:cf:bc:b2:7f:cc:f8:25:86:5a:65:74:be:1d:25:
         1f:ed:58:36:5c:62:b3:c0:a0:ce:ae:06:90:3c:37:d7:1e:7b:
         69:e9:92:9b:85:4f:de:56:97:65:6e:82:b9:c7:67:a9:f3:8b:
         45:1a:ed:a3:77:cc:52:ab:72:8c:8d:9c:a9:5a:01:b5:75:66:
         76:3d:5c:99:22:a0:ae:d0:33:75:bf:c9:a6:8d:28:6a:c2:26:
         a8:77:2e:0f:90:6a:2b:32:01:30:94:28:b9:13:fc:3e:71:7f:
         10:ff:47:00:5a:e8:e8:12:e4:76:51:4a:1a:87:f9:7a:68:50:
         1b:ff:18:a7:17:9b:43:b1:99:6d:75:3f:02:19:b6:b6:0e:f8:
         83:9e:b8:c6:e8:65:50:7e:63:cf:e0:1c:3c:49:99:b8:0b:68:
         9f:53:4c:b4:18:bd:c0:e0:ee:ce:1a:94:f4:95:f6:d2:14:72:
         27:a0:df:bf:a9:da:1d:7d:97:c0:aa:dc:3f:3b:ba:8e:d7:90:
         2a:52:d9:fd:ee:61:62:9e:e1:ac:c3:54:9c:8f:b2:4b:02:a4:
         b3:d2:84:71:33:5f:be:03:59:57:aa:d8:3c:06:19:76:a9:17:
         bf:4a:c6:3d:51:f1:42:1d:b2:9a:51:6a:05:95:58:4d:93:d8:
         d4:4c:6a:75:cd:6c:cd:d1:66:71:f1:78:2b:43:62:e9:37:df:
         52:ef:bb:29:d8:c9:fc:45:4a:71:9b:35:b9:17:0d:66:5a:8d:
         a7:13:49:33:4d:d2:85:c9:20:68:3d:9f:60:97:5c:af:9b:f5:
         9a:b6:ae:12:4e:62:47:f9:e4:00:b4:64:1b:8b:13:21:ec:db:
         d8:17:a5:f3:b4:42:e9:9a:04:c0:27:68:26:ee:d9:f0:cd:4d:
         29:cb:e7:79:3c:62:15:96:40:0e:73:6e:50:ac:80:03:b4:b8:
         c8:68:53:df:b9:5e:7f:61:35:fc:1a:dc:63:01:f4:47:de:75:
         8c:b3:b6:39:9d:5e:53:13:cf:f0:cc:96:d0:c1:7a:4f:44:b7:
         70:c4:76:6c:10:88:61:b2:28:c5:d6:f8:66:d1:ae:ed:06:ad:
         96:cd:fb:f7:d5:1d:fd:d8:10:d1:a7:f3:f6:19:75:fe:fb:0e:
         27:33:38:4d:2f:a6:fd:21:45:14:73:cb:af:1c:3b:14:a9:e5:
         e4:82:d4:b1:10:de:83:ff:b4:35:3a:bf:c8:c7:7b:67:f0:84:
         df:94:51:2f:16:4f:0b:85:4d:8a:dc:0d:a5:17:88:5f:64:52:
         8d:49:f8:94:cc:f7:0f:5e:94:9c:b1:fe:32:73:d6:1e:cd:dd:
         f7:6b:b5:d7:73:ef:05:3d:44:85:ab:bc:f2:2a:e8:2d:4a:85:
         68:80:de:64:7c:2b:70:cf:5f:d4:b6:ad:6b:bb:e1:d9:10:1f:
         a4:bb:ef:b4:33:8b:0c:97:1f:15:7a:4b:d2:f2:7f:ec:8f:47:
         a9:89:f7:cd:34:39:e0:94:1a:a6:b5:84:9f:0b:9e:a1:89:36:
         59:a4:87:55:1e:df:98:f7:b0:91:d4:e6:75:1b:7b:d4:ca:36:
         cb:18:99:d7:89:d1:54:ec:f6:96:b9:c3:50:9f:ce:bb:20:16:
         c3:00:d9:8e:e4:d3:87:b3:79:a4:28:ed:0a:41:72:bb:1e:91:
         c0:6c:2a:83:e9:1a:7c:20:c0:09:66:e3:e8:74:59:75
-----BEGIN CERTIFICATE-----
MIIIKzCCBBOgAwIBAgIBAzANBgkqhkiG9w0BAQ0FADCBiDELMAkGA1UEBhMCQ0Ex
DzANBgNVBAgMBlF1ZWJlYzEVMBMGA1UEBwwMTkRNb250Q2FybWVsMRAwDgYDVQQK
DAdwaXZvaW5lMRQwEgYDVQQLDAtNaWxsZUdyaWxsZTEpMCcGA1UEAwwgcGl2b2lu
ZS5taWxsZWdyaWxsZXMubWR1Z3JlLmluZm8wHhcNMTkwNjA1MTczNjE5WhcNMjAw
NjA1MTczNjE5WjB5MQswCQYDVQQGEwJDQTEPMA0GA1UECAwGUXVlYmVjMRUwEwYD
VQQHDAxORE1vbnRDYXJtZWwxEDAOBgNVBAoMB3Bpdm9pbmUxDjAMBgNVBAsMBU5v
ZXVkMSAwHgYDVQQDDBduczEucGl2b2luZS5tZHVncmUuaW5mbzCCAiIwDQYJKoZI
hvcNAQEBBQADggIPADCCAgoCggIBAMvb4X3M1oKB7W1m2QrXHxHp5AnC1lHM2pJQ
/nvZditeG1PCsY5LzHNXSbMcbsxOt60G8ikbHr+vKobWU1SgNc32i+rYr7xQh7+0
vbm7PMecQVIrJmIdPgQUtWl5GSpLuXT9FN85S19Ewk14DzTDllKHy9XOhG40b5T/
84UDNomGW2HxfDiGYZPtstBr6cYNODM0ebn8itDcSkFHgguIxRoxzwObNhVbI+J3
/q7bYyTefm815UK3pQn13SuuQacBeSFDBRteOiixy7YuK5DNFlklE/bz5NzAItdh
iC7eD5gOFlTjFKCyc+4HC48KEsFFUIl0JnzkDTaiugDlfMBcXdeResqPsn27Dz20
PK8Az+L+bqrFnkMtWzYwa6TvYM3/O760ZsX9TkHsZsnVvGE2zSbQxE+MBwXtIW64
cTloVlzh75UJP1jkbzB3mpkTh2M2NkKwcf1MzmwcqNtXKk9Yhe1bJb7fN6aFNt5j
M79hHagCubvgJnoDvKsXryOd9Qng2+ixm0+vE1V48F+/k7QBjd4JW5DW8XXq17CU
I/s7FBKFO9H+uo6GVecyLv409GDfV+V2JBIwstBTMYAK3veB3oCGqHey7DA2190s
2eMWtH97juY0fjNrfzM1lVxQD7ETfKVWDN7ko7b+8tTKdldNB3/SIPocDBXOIfzM
1CjCM4snAgMBAAGjga0wgaowHQYDVR0OBBYEFKqZ0Bi1i89/Eie0oOPYPQSj+t+t
MB8GA1UdIwQYMBaAFLWxU+AgbJZFeykQTBO2ehM6CRApMAkGA1UdEwQCMAAwCwYD
VR0PBAQDAgWgMCIGA1UdEQQbMBmCF25zMS5waXZvaW5lLm1kdWdyZS5pbmZvMCwG
CWCGSAGG+EIBDQQfFh1PcGVuU1NMIEdlbmVyYXRlZCBDZXJ0aWZpY2F0ZTANBgkq
hkiG9w0BAQ0FAAOCBAEAY3rbrAFrt7GUN5IDbEqysnu9SDdhnjHL6ZVJs9EAvVTM
ITRAO0Lku1M9QHroOaxUea4ACB6TkeD+Thpc6D5FVA48ErvrP2l4USkWVU/tcFnP
VOX4LdMKXcQ6HK2hqmSciH5BwVOvyZf7eGbYjYJI2xCpNY42CvFMsZpq7jlnyfQL
mzQWjftZdl9uk17KjDqpSBOTOYQ7+RI60BGFdQmfLtwl5Cs2d4CbdlOToPIvQWCD
UvgndBbXqxsZn/3h7yWUj5hndCR9mbAoO2QqVzVeUD0tsPdAWrwiXAUPLu22h/w1
K1nUQyxFUnkZ6umC3lnvgMBpHQk9zHZyNYKI7Du40N7m2wCB2il+oo6mpuAZVELK
v/iEh6n1dhXsXqfp+kF4RS9W7tRT0nlAD2mViyo6JDUa+ljqRYCjdxhdHDymOp9m
wbJZcen5fAXNmbZuw+yV5QKkYY6tMzh5Or4l21+K8576umDf/5NDhnqfobp93mKG
lveqdQcPZEUH9L4vRs+8sn/M+CWGWmV0vh0lH+1YNlxis8Cgzq4GkDw31x57aemS
m4VP3laXZW6CucdnqfOLRRrto3fMUqtyjI2cqVoBtXVmdj1cmSKgrtAzdb/Jpo0o
asImqHcuD5BqKzIBMJQouRP8PnF/EP9HAFro6BLkdlFKGof5emhQG/8YpxebQ7GZ
bXU/Ahm2tg74g564xuhlUH5jz+AcPEmZuAton1NMtBi9wODuzhqU9JX20hRyJ6Df
v6naHX2XwKrcPzu6jteQKlLZ/e5hYp7hrMNUnI+ySwKks9KEcTNfvgNZV6rYPAYZ
dqkXv0rGPVHxQh2ymlFqBZVYTZPY1Exqdc1szdFmcfF4K0Ni6TffUu+7KdjJ/EVK
cZs1uRcNZlqNpxNJM03ShckgaD2fYJdcr5v1mrauEk5iR/nkALRkG4sTIezb2Bel
87RC6ZoEwCdoJu7Z8M1NKcvneTxiFZZADnNuUKyAA7S4yGhT37lef2E1/BrcYwH0
R951jLO2OZ1eUxPP8MyW0MF6T0S3cMR2bBCIYbIoxdb4ZtGu7Qatls3799Ud/dgQ
0afz9hl1/vsOJzM4TS+m/SFFFHPLrxw7FKnl5ILUsRDeg/+0NTq/yMd7Z/CE35RR
LxZPC4VNitwNpReIX2RSjUn4lMz3D16UnLH+MnPWHs3d92u113PvBT1Ehau88iro
LUqFaIDeZHwrcM9f1Lata7vh2RAfpLvvtDOLDJcfFXpL0vJ/7I9HqYn3zTQ54JQa
prWEnwueoYk2WaSHVR7fmPewkdTmdRt71Mo2yxiZ14nRVOz2lrnDUJ/OuyAWwwDZ
juTTh7N5pCjtCkFyux6RwGwqg+kafCDACWbj6HRZdQ==
-----END CERTIFICATE-----
